

Microchip MPLAB XC8 Assembler V2.41 build 20230208172133 
                                                                                               Wed Aug 23 14:35:45 2023

Microchip MPLAB XC8 C Compiler v2.41 (Free license) build 20230208172133 Og1 
     1                           	processor	16F1939
     2                           	pagewidth 120
     3                           	opt	flic
     4                           	psect	idataCOMMON,global,class=CODE,delta=2,noexec
     5                           	psect	cinit,global,class=CODE,merge=1,delta=2
     6                           	psect	dataCOMMON,global,class=COMMON,space=1,delta=1,noexec
     7                           	psect	cstackCOMMON,global,class=COMMON,space=1,delta=1,noexec
     8                           	psect	maintext,global,class=CODE,merge=1,split=1,delta=2
     9                           	psect	text1,local,class=CODE,merge=1,delta=2
    10                           	psect	text2,local,class=CODE,merge=1,delta=2
    11                           	psect	text3,local,class=CODE,merge=1,delta=2
    12                           	psect	text4,local,class=CODE,merge=1,delta=2
    13                           	psect	text5,local,class=CODE,merge=1,delta=2
    14                           	psect	text6,local,class=CODE,merge=1,delta=2
    15                           	psect	text7,local,class=CODE,merge=1,delta=2
    16                           	psect	text8,local,class=CODE,merge=1,delta=2
    17                           	psect	text9,local,class=CODE,merge=1,delta=2
    18                           	psect	text10,local,class=CODE,merge=1,delta=2
    19                           	psect	text11,local,class=CODE,merge=1,delta=2
    20                           	psect	config,global,abs,ovrld,class=CONFIG,space=4,delta=2,noexec
    21                           	dabs	1,0x7E,2
    22     0000                     
    23                           ; Generated 06/07/2023 GMT
    24                           ; 
    25                           ; Copyright © 2023, Microchip Technology Inc. and its subsidiaries ("Microchip")
    26                           ; All rights reserved.
    27                           ; 
    28                           ; This software is developed by Microchip Technology Inc. and its subsidiaries ("Microch
      +                          ip").
    29                           ; 
    30                           ; Redistribution and use in source and binary forms, with or without modification, are
    31                           ; permitted provided that the following conditions are met:
    32                           ; 
    33                           ;     1. Redistributions of source code must retain the above copyright notice, this lis
      +                          t of
    34                           ;        conditions and the following disclaimer.
    35                           ; 
    36                           ;     2. Redistributions in binary form must reproduce the above copyright notice, this 
      +                          list
    37                           ;        of conditions and the following disclaimer in the documentation and/or other
    38                           ;        materials provided with the distribution. Publication is not required when
    39                           ;        this file is used in an embedded application.
    40                           ; 
    41                           ;     3. Microchip's name may not be used to endorse or promote products derived from th
      +                          is
    42                           ;        software without specific prior written permission.
    43                           ; 
    44                           ; THIS SOFTWARE IS PROVIDED BY MICROCHIP "AS IS" AND ANY EXPRESS OR IMPLIED WARRANTIES,
    45                           ; INCLUDING, BUT NOT LIMITED TO, THE IMPLIED WARRANTIES OF MERCHANTABILITY AND FITNESS F
      +                          OR
    46                           ; PURPOSE ARE DISCLAIMED.  IN NO EVENT SHALL MICROCHIP BE LIABLE FOR ANY DIRECT, INDIREC
      +                          T,
    47                           ; INCIDENTAL, SPECIAL, EXEMPLARY, OR CONSEQUENTIAL DAMAGES (INCLUDING BUT NOT LIMITED TO
    48                           ; PROCUREMENT OF SUBSTITUTE GOODS OR SERVICES; LOSS OF USE, DATA OR PROFITS; OR BUSINESS
    49                           ; INTERRUPTION) HOWSOEVER CAUSED AND ON ANY THEORY OF LIABILITY, WHETHER IN CONTRACT, ST
      +                          RICT
    50                           ; LIABILITY, OR TORT (INCLUDING NEGLIGENCE OR OTHERWISE) ARISING IN ANY WAY OUT OF THE U
      +                          SE OF
    51                           ; THIS SOFTWARE, EVEN IF ADVISED OF THE POSSIBILITY OF SUCH DAMAGE.
    52                           ; 
    53                           ; 
    54                           ; Code-generator required, PIC16F1939 Definitions
    55                           ; 
    56                           ; SFR Addresses
    57     0000                     	;# 
    58     0001                     	;# 
    59     0002                     	;# 
    60     0003                     	;# 
    61     0004                     	;# 
    62     0005                     	;# 
    63     0006                     	;# 
    64     0007                     	;# 
    65     0008                     	;# 
    66     0009                     	;# 
    67     000A                     	;# 
    68     000B                     	;# 
    69     000C                     	;# 
    70     000D                     	;# 
    71     000E                     	;# 
    72     000F                     	;# 
    73     0010                     	;# 
    74     0011                     	;# 
    75     0012                     	;# 
    76     0013                     	;# 
    77     0015                     	;# 
    78     0016                     	;# 
    79     0016                     	;# 
    80     0017                     	;# 
    81     0018                     	;# 
    82     0019                     	;# 
    83     001A                     	;# 
    84     001B                     	;# 
    85     001C                     	;# 
    86     001E                     	;# 
    87     001F                     	;# 
    88     008C                     	;# 
    89     008D                     	;# 
    90     008E                     	;# 
    91     008F                     	;# 
    92     0090                     	;# 
    93     0091                     	;# 
    94     0092                     	;# 
    95     0093                     	;# 
    96     0095                     	;# 
    97     0096                     	;# 
    98     0097                     	;# 
    99     0098                     	;# 
   100     0099                     	;# 
   101     009A                     	;# 
   102     009B                     	;# 
   103     009B                     	;# 
   104     009C                     	;# 
   105     009D                     	;# 
   106     009E                     	;# 
   107     010C                     	;# 
   108     010D                     	;# 
   109     010E                     	;# 
   110     010F                     	;# 
   111     0110                     	;# 
   112     0111                     	;# 
   113     0112                     	;# 
   114     0113                     	;# 
   115     0114                     	;# 
   116     0115                     	;# 
   117     0116                     	;# 
   118     0117                     	;# 
   119     0118                     	;# 
   120     0119                     	;# 
   121     011A                     	;# 
   122     011B                     	;# 
   123     011D                     	;# 
   124     018C                     	;# 
   125     018D                     	;# 
   126     018F                     	;# 
   127     0190                     	;# 
   128     0191                     	;# 
   129     0191                     	;# 
   130     0192                     	;# 
   131     0193                     	;# 
   132     0193                     	;# 
   133     0193                     	;# 
   134     0194                     	;# 
   135     0195                     	;# 
   136     0196                     	;# 
   137     0199                     	;# 
   138     019A                     	;# 
   139     019B                     	;# 
   140     019B                     	;# 
   141     019B                     	;# 
   142     019B                     	;# 
   143     019C                     	;# 
   144     019C                     	;# 
   145     019D                     	;# 
   146     019E                     	;# 
   147     019F                     	;# 
   148     020D                     	;# 
   149     0210                     	;# 
   150     0211                     	;# 
   151     0212                     	;# 
   152     0213                     	;# 
   153     0214                     	;# 
   154     0215                     	;# 
   155     0215                     	;# 
   156     0216                     	;# 
   157     0217                     	;# 
   158     0291                     	;# 
   159     0291                     	;# 
   160     0292                     	;# 
   161     0293                     	;# 
   162     0294                     	;# 
   163     0295                     	;# 
   164     0295                     	;# 
   165     0296                     	;# 
   166     0298                     	;# 
   167     0298                     	;# 
   168     0299                     	;# 
   169     029A                     	;# 
   170     029B                     	;# 
   171     029C                     	;# 
   172     029C                     	;# 
   173     029D                     	;# 
   174     029E                     	;# 
   175     029F                     	;# 
   176     0311                     	;# 
   177     0311                     	;# 
   178     0312                     	;# 
   179     0313                     	;# 
   180     0314                     	;# 
   181     0315                     	;# 
   182     0315                     	;# 
   183     0316                     	;# 
   184     0318                     	;# 
   185     0318                     	;# 
   186     0319                     	;# 
   187     031A                     	;# 
   188     031C                     	;# 
   189     031C                     	;# 
   190     031D                     	;# 
   191     031E                     	;# 
   192     0394                     	;# 
   193     0395                     	;# 
   194     0396                     	;# 
   195     0415                     	;# 
   196     0416                     	;# 
   197     0417                     	;# 
   198     041C                     	;# 
   199     041D                     	;# 
   200     041E                     	;# 
   201     0791                     	;# 
   202     0792                     	;# 
   203     0793                     	;# 
   204     0794                     	;# 
   205     0795                     	;# 
   206     0798                     	;# 
   207     0799                     	;# 
   208     079A                     	;# 
   209     07A0                     	;# 
   210     07A1                     	;# 
   211     07A2                     	;# 
   212     07A3                     	;# 
   213     07A4                     	;# 
   214     07A5                     	;# 
   215     07A6                     	;# 
   216     07A7                     	;# 
   217     07A8                     	;# 
   218     07A9                     	;# 
   219     07AA                     	;# 
   220     07AB                     	;# 
   221     0FE4                     	;# 
   222     0FE5                     	;# 
   223     0FE6                     	;# 
   224     0FE7                     	;# 
   225     0FE8                     	;# 
   226     0FE9                     	;# 
   227     0FEA                     	;# 
   228     0FEB                     	;# 
   229     0FED                     	;# 
   230     0FEE                     	;# 
   231     0FEF                     	;# 
   232     0000                     	;# 
   233     0001                     	;# 
   234     0002                     	;# 
   235     0003                     	;# 
   236     0004                     	;# 
   237     0005                     	;# 
   238     0006                     	;# 
   239     0007                     	;# 
   240     0008                     	;# 
   241     0009                     	;# 
   242     000A                     	;# 
   243     000B                     	;# 
   244     000C                     	;# 
   245     000D                     	;# 
   246     000E                     	;# 
   247     000F                     	;# 
   248     0010                     	;# 
   249     0011                     	;# 
   250     0012                     	;# 
   251     0013                     	;# 
   252     0015                     	;# 
   253     0016                     	;# 
   254     0016                     	;# 
   255     0017                     	;# 
   256     0018                     	;# 
   257     0019                     	;# 
   258     001A                     	;# 
   259     001B                     	;# 
   260     001C                     	;# 
   261     001E                     	;# 
   262     001F                     	;# 
   263     008C                     	;# 
   264     008D                     	;# 
   265     008E                     	;# 
   266     008F                     	;# 
   267     0090                     	;# 
   268     0091                     	;# 
   269     0092                     	;# 
   270     0093                     	;# 
   271     0095                     	;# 
   272     0096                     	;# 
   273     0097                     	;# 
   274     0098                     	;# 
   275     0099                     	;# 
   276     009A                     	;# 
   277     009B                     	;# 
   278     009B                     	;# 
   279     009C                     	;# 
   280     009D                     	;# 
   281     009E                     	;# 
   282     010C                     	;# 
   283     010D                     	;# 
   284     010E                     	;# 
   285     010F                     	;# 
   286     0110                     	;# 
   287     0111                     	;# 
   288     0112                     	;# 
   289     0113                     	;# 
   290     0114                     	;# 
   291     0115                     	;# 
   292     0116                     	;# 
   293     0117                     	;# 
   294     0118                     	;# 
   295     0119                     	;# 
   296     011A                     	;# 
   297     011B                     	;# 
   298     011D                     	;# 
   299     018C                     	;# 
   300     018D                     	;# 
   301     018F                     	;# 
   302     0190                     	;# 
   303     0191                     	;# 
   304     0191                     	;# 
   305     0192                     	;# 
   306     0193                     	;# 
   307     0193                     	;# 
   308     0193                     	;# 
   309     0194                     	;# 
   310     0195                     	;# 
   311     0196                     	;# 
   312     0199                     	;# 
   313     019A                     	;# 
   314     019B                     	;# 
   315     019B                     	;# 
   316     019B                     	;# 
   317     019B                     	;# 
   318     019C                     	;# 
   319     019C                     	;# 
   320     019D                     	;# 
   321     019E                     	;# 
   322     019F                     	;# 
   323     020D                     	;# 
   324     0210                     	;# 
   325     0211                     	;# 
   326     0212                     	;# 
   327     0213                     	;# 
   328     0214                     	;# 
   329     0215                     	;# 
   330     0215                     	;# 
   331     0216                     	;# 
   332     0217                     	;# 
   333     0291                     	;# 
   334     0291                     	;# 
   335     0292                     	;# 
   336     0293                     	;# 
   337     0294                     	;# 
   338     0295                     	;# 
   339     0295                     	;# 
   340     0296                     	;# 
   341     0298                     	;# 
   342     0298                     	;# 
   343     0299                     	;# 
   344     029A                     	;# 
   345     029B                     	;# 
   346     029C                     	;# 
   347     029C                     	;# 
   348     029D                     	;# 
   349     029E                     	;# 
   350     029F                     	;# 
   351     0311                     	;# 
   352     0311                     	;# 
   353     0312                     	;# 
   354     0313                     	;# 
   355     0314                     	;# 
   356     0315                     	;# 
   357     0315                     	;# 
   358     0316                     	;# 
   359     0318                     	;# 
   360     0318                     	;# 
   361     0319                     	;# 
   362     031A                     	;# 
   363     031C                     	;# 
   364     031C                     	;# 
   365     031D                     	;# 
   366     031E                     	;# 
   367     0394                     	;# 
   368     0395                     	;# 
   369     0396                     	;# 
   370     0415                     	;# 
   371     0416                     	;# 
   372     0417                     	;# 
   373     041C                     	;# 
   374     041D                     	;# 
   375     041E                     	;# 
   376     0791                     	;# 
   377     0792                     	;# 
   378     0793                     	;# 
   379     0794                     	;# 
   380     0795                     	;# 
   381     0798                     	;# 
   382     0799                     	;# 
   383     079A                     	;# 
   384     07A0                     	;# 
   385     07A1                     	;# 
   386     07A2                     	;# 
   387     07A3                     	;# 
   388     07A4                     	;# 
   389     07A5                     	;# 
   390     07A6                     	;# 
   391     07A7                     	;# 
   392     07A8                     	;# 
   393     07A9                     	;# 
   394     07AA                     	;# 
   395     07AB                     	;# 
   396     0FE4                     	;# 
   397     0FE5                     	;# 
   398     0FE6                     	;# 
   399     0FE7                     	;# 
   400     0FE8                     	;# 
   401     0FE9                     	;# 
   402     0FEA                     	;# 
   403     0FEB                     	;# 
   404     0FED                     	;# 
   405     0FEE                     	;# 
   406     0FEF                     	;# 
   407     0000                     	;# 
   408     0001                     	;# 
   409     0002                     	;# 
   410     0003                     	;# 
   411     0004                     	;# 
   412     0005                     	;# 
   413     0006                     	;# 
   414     0007                     	;# 
   415     0008                     	;# 
   416     0009                     	;# 
   417     000A                     	;# 
   418     000B                     	;# 
   419     000C                     	;# 
   420     000D                     	;# 
   421     000E                     	;# 
   422     000F                     	;# 
   423     0010                     	;# 
   424     0011                     	;# 
   425     0012                     	;# 
   426     0013                     	;# 
   427     0015                     	;# 
   428     0016                     	;# 
   429     0016                     	;# 
   430     0017                     	;# 
   431     0018                     	;# 
   432     0019                     	;# 
   433     001A                     	;# 
   434     001B                     	;# 
   435     001C                     	;# 
   436     001E                     	;# 
   437     001F                     	;# 
   438     008C                     	;# 
   439     008D                     	;# 
   440     008E                     	;# 
   441     008F                     	;# 
   442     0090                     	;# 
   443     0091                     	;# 
   444     0092                     	;# 
   445     0093                     	;# 
   446     0095                     	;# 
   447     0096                     	;# 
   448     0097                     	;# 
   449     0098                     	;# 
   450     0099                     	;# 
   451     009A                     	;# 
   452     009B                     	;# 
   453     009B                     	;# 
   454     009C                     	;# 
   455     009D                     	;# 
   456     009E                     	;# 
   457     010C                     	;# 
   458     010D                     	;# 
   459     010E                     	;# 
   460     010F                     	;# 
   461     0110                     	;# 
   462     0111                     	;# 
   463     0112                     	;# 
   464     0113                     	;# 
   465     0114                     	;# 
   466     0115                     	;# 
   467     0116                     	;# 
   468     0117                     	;# 
   469     0118                     	;# 
   470     0119                     	;# 
   471     011A                     	;# 
   472     011B                     	;# 
   473     011D                     	;# 
   474     018C                     	;# 
   475     018D                     	;# 
   476     018F                     	;# 
   477     0190                     	;# 
   478     0191                     	;# 
   479     0191                     	;# 
   480     0192                     	;# 
   481     0193                     	;# 
   482     0193                     	;# 
   483     0193                     	;# 
   484     0194                     	;# 
   485     0195                     	;# 
   486     0196                     	;# 
   487     0199                     	;# 
   488     019A                     	;# 
   489     019B                     	;# 
   490     019B                     	;# 
   491     019B                     	;# 
   492     019B                     	;# 
   493     019C                     	;# 
   494     019C                     	;# 
   495     019D                     	;# 
   496     019E                     	;# 
   497     019F                     	;# 
   498     020D                     	;# 
   499     0210                     	;# 
   500     0211                     	;# 
   501     0212                     	;# 
   502     0213                     	;# 
   503     0214                     	;# 
   504     0215                     	;# 
   505     0215                     	;# 
   506     0216                     	;# 
   507     0217                     	;# 
   508     0291                     	;# 
   509     0291                     	;# 
   510     0292                     	;# 
   511     0293                     	;# 
   512     0294                     	;# 
   513     0295                     	;# 
   514     0295                     	;# 
   515     0296                     	;# 
   516     0298                     	;# 
   517     0298                     	;# 
   518     0299                     	;# 
   519     029A                     	;# 
   520     029B                     	;# 
   521     029C                     	;# 
   522     029C                     	;# 
   523     029D                     	;# 
   524     029E                     	;# 
   525     029F                     	;# 
   526     0311                     	;# 
   527     0311                     	;# 
   528     0312                     	;# 
   529     0313                     	;# 
   530     0314                     	;# 
   531     0315                     	;# 
   532     0315                     	;# 
   533     0316                     	;# 
   534     0318                     	;# 
   535     0318                     	;# 
   536     0319                     	;# 
   537     031A                     	;# 
   538     031C                     	;# 
   539     031C                     	;# 
   540     031D                     	;# 
   541     031E                     	;# 
   542     0394                     	;# 
   543     0395                     	;# 
   544     0396                     	;# 
   545     0415                     	;# 
   546     0416                     	;# 
   547     0417                     	;# 
   548     041C                     	;# 
   549     041D                     	;# 
   550     041E                     	;# 
   551     0791                     	;# 
   552     0792                     	;# 
   553     0793                     	;# 
   554     0794                     	;# 
   555     0795                     	;# 
   556     0798                     	;# 
   557     0799                     	;# 
   558     079A                     	;# 
   559     07A0                     	;# 
   560     07A1                     	;# 
   561     07A2                     	;# 
   562     07A3                     	;# 
   563     07A4                     	;# 
   564     07A5                     	;# 
   565     07A6                     	;# 
   566     07A7                     	;# 
   567     07A8                     	;# 
   568     07A9                     	;# 
   569     07AA                     	;# 
   570     07AB                     	;# 
   571     0FE4                     	;# 
   572     0FE5                     	;# 
   573     0FE6                     	;# 
   574     0FE7                     	;# 
   575     0FE8                     	;# 
   576     0FE9                     	;# 
   577     0FEA                     	;# 
   578     0FEB                     	;# 
   579     0FED                     	;# 
   580     0FEE                     	;# 
   581     0FEF                     	;# 
   582     0000                     	;# 
   583     0001                     	;# 
   584     0002                     	;# 
   585     0003                     	;# 
   586     0004                     	;# 
   587     0005                     	;# 
   588     0006                     	;# 
   589     0007                     	;# 
   590     0008                     	;# 
   591     0009                     	;# 
   592     000A                     	;# 
   593     000B                     	;# 
   594     000C                     	;# 
   595     000D                     	;# 
   596     000E                     	;# 
   597     000F                     	;# 
   598     0010                     	;# 
   599     0011                     	;# 
   600     0012                     	;# 
   601     0013                     	;# 
   602     0015                     	;# 
   603     0016                     	;# 
   604     0016                     	;# 
   605     0017                     	;# 
   606     0018                     	;# 
   607     0019                     	;# 
   608     001A                     	;# 
   609     001B                     	;# 
   610     001C                     	;# 
   611     001E                     	;# 
   612     001F                     	;# 
   613     008C                     	;# 
   614     008D                     	;# 
   615     008E                     	;# 
   616     008F                     	;# 
   617     0090                     	;# 
   618     0091                     	;# 
   619     0092                     	;# 
   620     0093                     	;# 
   621     0095                     	;# 
   622     0096                     	;# 
   623     0097                     	;# 
   624     0098                     	;# 
   625     0099                     	;# 
   626     009A                     	;# 
   627     009B                     	;# 
   628     009B                     	;# 
   629     009C                     	;# 
   630     009D                     	;# 
   631     009E                     	;# 
   632     010C                     	;# 
   633     010D                     	;# 
   634     010E                     	;# 
   635     010F                     	;# 
   636     0110                     	;# 
   637     0111                     	;# 
   638     0112                     	;# 
   639     0113                     	;# 
   640     0114                     	;# 
   641     0115                     	;# 
   642     0116                     	;# 
   643     0117                     	;# 
   644     0118                     	;# 
   645     0119                     	;# 
   646     011A                     	;# 
   647     011B                     	;# 
   648     011D                     	;# 
   649     018C                     	;# 
   650     018D                     	;# 
   651     018F                     	;# 
   652     0190                     	;# 
   653     0191                     	;# 
   654     0191                     	;# 
   655     0192                     	;# 
   656     0193                     	;# 
   657     0193                     	;# 
   658     0193                     	;# 
   659     0194                     	;# 
   660     0195                     	;# 
   661     0196                     	;# 
   662     0199                     	;# 
   663     019A                     	;# 
   664     019B                     	;# 
   665     019B                     	;# 
   666     019B                     	;# 
   667     019B                     	;# 
   668     019C                     	;# 
   669     019C                     	;# 
   670     019D                     	;# 
   671     019E                     	;# 
   672     019F                     	;# 
   673     020D                     	;# 
   674     0210                     	;# 
   675     0211                     	;# 
   676     0212                     	;# 
   677     0213                     	;# 
   678     0214                     	;# 
   679     0215                     	;# 
   680     0215                     	;# 
   681     0216                     	;# 
   682     0217                     	;# 
   683     0291                     	;# 
   684     0291                     	;# 
   685     0292                     	;# 
   686     0293                     	;# 
   687     0294                     	;# 
   688     0295                     	;# 
   689     0295                     	;# 
   690     0296                     	;# 
   691     0298                     	;# 
   692     0298                     	;# 
   693     0299                     	;# 
   694     029A                     	;# 
   695     029B                     	;# 
   696     029C                     	;# 
   697     029C                     	;# 
   698     029D                     	;# 
   699     029E                     	;# 
   700     029F                     	;# 
   701     0311                     	;# 
   702     0311                     	;# 
   703     0312                     	;# 
   704     0313                     	;# 
   705     0314                     	;# 
   706     0315                     	;# 
   707     0315                     	;# 
   708     0316                     	;# 
   709     0318                     	;# 
   710     0318                     	;# 
   711     0319                     	;# 
   712     031A                     	;# 
   713     031C                     	;# 
   714     031C                     	;# 
   715     031D                     	;# 
   716     031E                     	;# 
   717     0394                     	;# 
   718     0395                     	;# 
   719     0396                     	;# 
   720     0415                     	;# 
   721     0416                     	;# 
   722     0417                     	;# 
   723     041C                     	;# 
   724     041D                     	;# 
   725     041E                     	;# 
   726     0791                     	;# 
   727     0792                     	;# 
   728     0793                     	;# 
   729     0794                     	;# 
   730     0795                     	;# 
   731     0798                     	;# 
   732     0799                     	;# 
   733     079A                     	;# 
   734     07A0                     	;# 
   735     07A1                     	;# 
   736     07A2                     	;# 
   737     07A3                     	;# 
   738     07A4                     	;# 
   739     07A5                     	;# 
   740     07A6                     	;# 
   741     07A7                     	;# 
   742     07A8                     	;# 
   743     07A9                     	;# 
   744     07AA                     	;# 
   745     07AB                     	;# 
   746     0FE4                     	;# 
   747     0FE5                     	;# 
   748     0FE6                     	;# 
   749     0FE7                     	;# 
   750     0FE8                     	;# 
   751     0FE9                     	;# 
   752     0FEA                     	;# 
   753     0FEB                     	;# 
   754     0FED                     	;# 
   755     0FEE                     	;# 
   756     0FEF                     	;# 
   757                           
   758                           	psect	idataCOMMON
   759     0550                     __pidataCOMMON:
   760                           
   761                           ;initializer for _T2
   762     0550  3405               	retlw	5
   763                           
   764                           ;initializer for _T
   765     0551  340A               	retlw	10
   766     000D                     _PORTBbits	set	13
   767     000E                     _PORTC	set	14
   768     000D                     _PORTB	set	13
   769     008E                     _TRISC	set	142
   770     008D                     _TRISB	set	141
   771     010E                     _LATCbits	set	270
   772     018D                     _ANSELB	set	397
   773                           
   774                           	psect	cinit
   775     07F5                     start_initialization:	
   776                           ; #config settings
   777                           
   778     07F5                     __initialization:
   779                           
   780                           ; Initialize objects allocated to COMMON
   781     07F5  3185  2550  3187   	fcall	__pidataCOMMON	;fetch initializer
   782     07F8  00F5               	movwf	__pdataCOMMON& (0+127)
   783     07F9  3185  2551  3187   	fcall	__pidataCOMMON+1	;fetch initializer
   784     07FC  00F6               	movwf	(__pdataCOMMON+1)& (0+127)
   785     07FD                     end_of_initialization:	
   786                           ;End of C runtime variable initialization code
   787                           
   788     07FD                     __end_of__initialization:
   789     07FD  0020               	movlb	0
   790     07FE  3187  2F17         	ljmp	_main	;jump to C main() function
   791                           
   792                           	psect	dataCOMMON
   793     0075                     __pdataCOMMON:
   794     0075                     _T2:
   795     0075                     	ds	1
   796     0076                     _T:
   797     0076                     	ds	1
   798                           
   799                           	psect	cstackCOMMON
   800     0070                     __pcstackCOMMON:
   801     0070                     ?_main:
   802     0070                     ?_Secuencia0:	
   803                           ; 1 bytes @ 0x0
   804                           
   805     0070                     ??_Secuencia0:	
   806                           ; 1 bytes @ 0x0
   807                           
   808     0070                     ?_Secuencia1:	
   809                           ; 1 bytes @ 0x0
   810                           
   811     0070                     ??_Secuencia1:	
   812                           ; 1 bytes @ 0x0
   813                           
   814     0070                     ?_Secuencia2:	
   815                           ; 1 bytes @ 0x0
   816                           
   817     0070                     ??_Secuencia2:	
   818                           ; 1 bytes @ 0x0
   819                           
   820     0070                     ?_Secuencia3:	
   821                           ; 1 bytes @ 0x0
   822                           
   823     0070                     ??_Secuencia3:	
   824                           ; 1 bytes @ 0x0
   825                           
   826     0070                     ?_Secuencia4:	
   827                           ; 1 bytes @ 0x0
   828                           
   829     0070                     ??_Secuencia4:	
   830                           ; 1 bytes @ 0x0
   831                           
   832     0070                     ?_Secuencia5:	
   833                           ; 1 bytes @ 0x0
   834                           
   835     0070                     ??_Secuencia5:	
   836                           ; 1 bytes @ 0x0
   837                           
   838     0070                     ?_Secuencia6:	
   839                           ; 1 bytes @ 0x0
   840                           
   841     0070                     ??_Secuencia6:	
   842                           ; 1 bytes @ 0x0
   843                           
   844     0070                     ?_Secuencia7:	
   845                           ; 1 bytes @ 0x0
   846                           
   847     0070                     ??_Secuencia7:	
   848                           ; 1 bytes @ 0x0
   849                           
   850     0070                     ?_Secuencia8:	
   851                           ; 1 bytes @ 0x0
   852                           
   853     0070                     ??_Secuencia8:	
   854                           ; 1 bytes @ 0x0
   855                           
   856     0070                     ?_Secuencia9:	
   857                           ; 1 bytes @ 0x0
   858                           
   859     0070                     ??_Secuencia9:	
   860                           ; 1 bytes @ 0x0
   861                           
   862                           
   863                           ; 1 bytes @ 0x0
   864     0070                     	ds	1
   865     0071                     ?_Secuenciass:
   866     0071                     Secuenciass@P1:	
   867                           ; 1 bytes @ 0x1
   868                           
   869                           
   870                           ; 2 bytes @ 0x1
   871     0071                     	ds	2
   872     0073                     ??_Secuenciass:
   873     0073                     ??_main:	
   874                           ; 1 bytes @ 0x3
   875                           
   876     0073                     main@P:	
   877                           ; 1 bytes @ 0x3
   878                           
   879                           
   880                           ; 2 bytes @ 0x3
   881     0073                     	ds	2
   882                           
   883                           	psect	maintext
   884     0717                     __pmaintext:	
   885 ;;
   886 ;;Main: autosize = 0, tempsize = 0, incstack = 0, save=0
   887 ;;
   888 ;; *************** function _main *****************
   889 ;; Defined at:
   890 ;;		line 7 in file "main.c"
   891 ;; Parameters:    Size  Location     Type
   892 ;;		None
   893 ;; Auto vars:     Size  Location     Type
   894 ;;  P               2    3[COMMON] int 
   895 ;; Return value:  Size  Location     Type
   896 ;;                  1    wreg      void 
   897 ;; Registers used:
   898 ;;		wreg, fsr0l, fsr0h, status,2, status,0, pclath, cstack
   899 ;; Tracked objects:
   900 ;;		On entry : B1F/0
   901 ;;		On exit  : 0/0
   902 ;;		Unchanged: 0/0
   903 ;; Data sizes:     COMMON   BANK0   BANK1   BANK2   BANK3   BANK4   BANK5   BANK6   BANK7   BANK8   BANK9  BANK10  BANK1
      +1  BANK12
   904 ;;      Params:         0       0       0       0       0       0       0       0       0       0       0       0       
      +0       0
   905 ;;      Locals:         2       0       0       0       0       0       0       0       0       0       0       0       
      +0       0
   906 ;;      Temps:          0       0       0       0       0       0       0       0       0       0       0       0       
      +0       0
   907 ;;      Totals:         2       0       0       0       0       0       0       0       0       0       0       0       
      +0       0
   908 ;;Total ram usage:        2 bytes
   909 ;; Hardware stack levels required when called: 2
   910 ;; This function calls:
   911 ;;		_Secuenciass
   912 ;; This function is called by:
   913 ;;		Startup code after reset
   914 ;; This function uses a non-reentrant model
   915 ;;
   916                           
   917     0717                     _main:	
   918                           ;psect for function _main
   919                           
   920     0717                     l1298:	
   921                           ;incstack = 0
   922                           ; Regs used in _main: [wreg-fsr0h+status,2+status,0+pclath+cstack]
   923                           
   924                           
   925                           ;main.c: 8:     TRISB = 0b00001111;
   926     0717  300F               	movlw	15
   927     0718  0021               	movlb	1	; select bank1
   928     0719  008D               	movwf	13	;volatile
   929     071A                     l1300:
   930                           
   931                           ;main.c: 9:     PORTB = 0x00;
   932     071A  0020               	movlb	0	; select bank0
   933     071B  018D               	clrf	13	;volatile
   934     071C                     l1302:
   935                           
   936                           ;main.c: 10:     TRISC = 0x00;
   937     071C  0021               	movlb	1	; select bank1
   938     071D  018E               	clrf	14	;volatile
   939     071E                     l1304:
   940                           
   941                           ;main.c: 11:     PORTC = 0x00;
   942     071E  0020               	movlb	0	; select bank0
   943     071F  018E               	clrf	14	;volatile
   944     0720                     l1306:
   945                           
   946                           ;main.c: 12:     ANSELB = 0x00;
   947     0720  0023               	movlb	3	; select bank3
   948     0721  018D               	clrf	13	;volatile
   949     0722                     l1308:
   950                           
   951                           ;main.c: 13:     int P=0;
   952     0722  01F3               	clrf	main@P
   953     0723  01F4               	clrf	main@P+1
   954     0724                     l1310:
   955                           
   956                           ;main.c: 16:         if((PORTBbits.RB0 == 0 && PORTBbits.RB1 == 0) && (PORTBbits.RB2 == 
      +                          0 && PORTBbits.RB3 == 0)){
   957     0724  0020               	movlb	0	; select bank0
   958     0725  180D               	btfsc	13,0	;volatile
   959     0726  2F28               	goto	u941
   960     0727  2F29               	goto	u940
   961     0728                     u941:
   962     0728  2F37               	goto	l1320
   963     0729                     u940:
   964     0729                     l1312:
   965     0729  188D               	btfsc	13,1	;volatile
   966     072A  2F2C               	goto	u951
   967     072B  2F2D               	goto	u950
   968     072C                     u951:
   969     072C  2F37               	goto	l1320
   970     072D                     u950:
   971     072D                     l1314:
   972     072D  190D               	btfsc	13,2	;volatile
   973     072E  2F30               	goto	u961
   974     072F  2F31               	goto	u960
   975     0730                     u961:
   976     0730  2F37               	goto	l1320
   977     0731                     u960:
   978     0731                     l1316:
   979     0731  198D               	btfsc	13,3	;volatile
   980     0732  2F34               	goto	u971
   981     0733  2F35               	goto	u970
   982     0734                     u971:
   983     0734  2F37               	goto	l1320
   984     0735                     u970:
   985     0735                     l1318:
   986                           
   987                           ;main.c: 17:             P=0;
   988     0735  01F3               	clrf	main@P
   989     0736  01F4               	clrf	main@P+1
   990     0737                     l1320:
   991                           
   992                           ;main.c: 19:         if((PORTBbits.RB0 == 0 && PORTBbits.RB1 == 0) && (PORTBbits.RB2 == 
      +                          0 && PORTBbits.RB3 == 1)){
   993     0737  180D               	btfsc	13,0	;volatile
   994     0738  2F3A               	goto	u981
   995     0739  2F3B               	goto	u980
   996     073A                     u981:
   997     073A  2F4B               	goto	l1330
   998     073B                     u980:
   999     073B                     l1322:
  1000     073B  188D               	btfsc	13,1	;volatile
  1001     073C  2F3E               	goto	u991
  1002     073D  2F3F               	goto	u990
  1003     073E                     u991:
  1004     073E  2F4B               	goto	l1330
  1005     073F                     u990:
  1006     073F                     l1324:
  1007     073F  190D               	btfsc	13,2	;volatile
  1008     0740  2F42               	goto	u1001
  1009     0741  2F43               	goto	u1000
  1010     0742                     u1001:
  1011     0742  2F4B               	goto	l1330
  1012     0743                     u1000:
  1013     0743                     l1326:
  1014     0743  1D8D               	btfss	13,3	;volatile
  1015     0744  2F46               	goto	u1011
  1016     0745  2F47               	goto	u1010
  1017     0746                     u1011:
  1018     0746  2F4B               	goto	l1330
  1019     0747                     u1010:
  1020     0747                     l1328:
  1021                           
  1022                           ;main.c: 20:             P=1;
  1023     0747  3001               	movlw	1
  1024     0748  00F3               	movwf	main@P
  1025     0749  3000               	movlw	0
  1026     074A  00F4               	movwf	main@P+1
  1027     074B                     l1330:
  1028                           
  1029                           ;main.c: 22:         if((PORTBbits.RB0 == 0 && PORTBbits.RB1 == 0) && (PORTBbits.RB2 == 
      +                          1 && PORTBbits.RB3 == 0)){
  1030     074B  180D               	btfsc	13,0	;volatile
  1031     074C  2F4E               	goto	u1021
  1032     074D  2F4F               	goto	u1020
  1033     074E                     u1021:
  1034     074E  2F5F               	goto	l1340
  1035     074F                     u1020:
  1036     074F                     l1332:
  1037     074F  188D               	btfsc	13,1	;volatile
  1038     0750  2F52               	goto	u1031
  1039     0751  2F53               	goto	u1030
  1040     0752                     u1031:
  1041     0752  2F5F               	goto	l1340
  1042     0753                     u1030:
  1043     0753                     l1334:
  1044     0753  1D0D               	btfss	13,2	;volatile
  1045     0754  2F56               	goto	u1041
  1046     0755  2F57               	goto	u1040
  1047     0756                     u1041:
  1048     0756  2F5F               	goto	l1340
  1049     0757                     u1040:
  1050     0757                     l1336:
  1051     0757  198D               	btfsc	13,3	;volatile
  1052     0758  2F5A               	goto	u1051
  1053     0759  2F5B               	goto	u1050
  1054     075A                     u1051:
  1055     075A  2F5F               	goto	l1340
  1056     075B                     u1050:
  1057     075B                     l1338:
  1058                           
  1059                           ;main.c: 23:             P=2;
  1060     075B  3002               	movlw	2
  1061     075C  00F3               	movwf	main@P
  1062     075D  3000               	movlw	0
  1063     075E  00F4               	movwf	main@P+1
  1064     075F                     l1340:
  1065                           
  1066                           ;main.c: 25:         if((PORTBbits.RB0 == 0 && PORTBbits.RB1 == 0) && (PORTBbits.RB2 == 
      +                          1 && PORTBbits.RB3 == 1)){
  1067     075F  180D               	btfsc	13,0	;volatile
  1068     0760  2F62               	goto	u1061
  1069     0761  2F63               	goto	u1060
  1070     0762                     u1061:
  1071     0762  2F73               	goto	l1350
  1072     0763                     u1060:
  1073     0763                     l1342:
  1074     0763  188D               	btfsc	13,1	;volatile
  1075     0764  2F66               	goto	u1071
  1076     0765  2F67               	goto	u1070
  1077     0766                     u1071:
  1078     0766  2F73               	goto	l1350
  1079     0767                     u1070:
  1080     0767                     l1344:
  1081     0767  1D0D               	btfss	13,2	;volatile
  1082     0768  2F6A               	goto	u1081
  1083     0769  2F6B               	goto	u1080
  1084     076A                     u1081:
  1085     076A  2F73               	goto	l1350
  1086     076B                     u1080:
  1087     076B                     l1346:
  1088     076B  1D8D               	btfss	13,3	;volatile
  1089     076C  2F6E               	goto	u1091
  1090     076D  2F6F               	goto	u1090
  1091     076E                     u1091:
  1092     076E  2F73               	goto	l1350
  1093     076F                     u1090:
  1094     076F                     l1348:
  1095                           
  1096                           ;main.c: 26:             P=3;
  1097     076F  3003               	movlw	3
  1098     0770  00F3               	movwf	main@P
  1099     0771  3000               	movlw	0
  1100     0772  00F4               	movwf	main@P+1
  1101     0773                     l1350:
  1102                           
  1103                           ;main.c: 28:         if((PORTBbits.RB0 == 0 && PORTBbits.RB1 == 1) && (PORTBbits.RB2 == 
      +                          0 && PORTBbits.RB3 == 0)){
  1104     0773  180D               	btfsc	13,0	;volatile
  1105     0774  2F76               	goto	u1101
  1106     0775  2F77               	goto	u1100
  1107     0776                     u1101:
  1108     0776  2F87               	goto	l1360
  1109     0777                     u1100:
  1110     0777                     l1352:
  1111     0777  1C8D               	btfss	13,1	;volatile
  1112     0778  2F7A               	goto	u1111
  1113     0779  2F7B               	goto	u1110
  1114     077A                     u1111:
  1115     077A  2F87               	goto	l1360
  1116     077B                     u1110:
  1117     077B                     l1354:
  1118     077B  190D               	btfsc	13,2	;volatile
  1119     077C  2F7E               	goto	u1121
  1120     077D  2F7F               	goto	u1120
  1121     077E                     u1121:
  1122     077E  2F87               	goto	l1360
  1123     077F                     u1120:
  1124     077F                     l1356:
  1125     077F  198D               	btfsc	13,3	;volatile
  1126     0780  2F82               	goto	u1131
  1127     0781  2F83               	goto	u1130
  1128     0782                     u1131:
  1129     0782  2F87               	goto	l1360
  1130     0783                     u1130:
  1131     0783                     l1358:
  1132                           
  1133                           ;main.c: 29:             P=4;
  1134     0783  3004               	movlw	4
  1135     0784  00F3               	movwf	main@P
  1136     0785  3000               	movlw	0
  1137     0786  00F4               	movwf	main@P+1
  1138     0787                     l1360:
  1139                           
  1140                           ;main.c: 31:         if((PORTBbits.RB0 == 0 && PORTBbits.RB1 == 1) && (PORTBbits.RB2 == 
      +                          0 && PORTBbits.RB3 == 1)){
  1141     0787  180D               	btfsc	13,0	;volatile
  1142     0788  2F8A               	goto	u1141
  1143     0789  2F8B               	goto	u1140
  1144     078A                     u1141:
  1145     078A  2F9B               	goto	l1370
  1146     078B                     u1140:
  1147     078B                     l1362:
  1148     078B  1C8D               	btfss	13,1	;volatile
  1149     078C  2F8E               	goto	u1151
  1150     078D  2F8F               	goto	u1150
  1151     078E                     u1151:
  1152     078E  2F9B               	goto	l1370
  1153     078F                     u1150:
  1154     078F                     l1364:
  1155     078F  190D               	btfsc	13,2	;volatile
  1156     0790  2F92               	goto	u1161
  1157     0791  2F93               	goto	u1160
  1158     0792                     u1161:
  1159     0792  2F9B               	goto	l1370
  1160     0793                     u1160:
  1161     0793                     l1366:
  1162     0793  1D8D               	btfss	13,3	;volatile
  1163     0794  2F96               	goto	u1171
  1164     0795  2F97               	goto	u1170
  1165     0796                     u1171:
  1166     0796  2F9B               	goto	l1370
  1167     0797                     u1170:
  1168     0797                     l1368:
  1169                           
  1170                           ;main.c: 32:             P=5;
  1171     0797  3005               	movlw	5
  1172     0798  00F3               	movwf	main@P
  1173     0799  3000               	movlw	0
  1174     079A  00F4               	movwf	main@P+1
  1175     079B                     l1370:
  1176                           
  1177                           ;main.c: 34:         if((PORTBbits.RB0 == 0 && PORTBbits.RB1 == 1) && (PORTBbits.RB2 == 
      +                          1 && PORTBbits.RB3 == 0)){
  1178     079B  180D               	btfsc	13,0	;volatile
  1179     079C  2F9E               	goto	u1181
  1180     079D  2F9F               	goto	u1180
  1181     079E                     u1181:
  1182     079E  2FAF               	goto	l1380
  1183     079F                     u1180:
  1184     079F                     l1372:
  1185     079F  1C8D               	btfss	13,1	;volatile
  1186     07A0  2FA2               	goto	u1191
  1187     07A1  2FA3               	goto	u1190
  1188     07A2                     u1191:
  1189     07A2  2FAF               	goto	l1380
  1190     07A3                     u1190:
  1191     07A3                     l1374:
  1192     07A3  1D0D               	btfss	13,2	;volatile
  1193     07A4  2FA6               	goto	u1201
  1194     07A5  2FA7               	goto	u1200
  1195     07A6                     u1201:
  1196     07A6  2FAF               	goto	l1380
  1197     07A7                     u1200:
  1198     07A7                     l1376:
  1199     07A7  198D               	btfsc	13,3	;volatile
  1200     07A8  2FAA               	goto	u1211
  1201     07A9  2FAB               	goto	u1210
  1202     07AA                     u1211:
  1203     07AA  2FAF               	goto	l1380
  1204     07AB                     u1210:
  1205     07AB                     l1378:
  1206                           
  1207                           ;main.c: 35:             P=6;
  1208     07AB  3006               	movlw	6
  1209     07AC  00F3               	movwf	main@P
  1210     07AD  3000               	movlw	0
  1211     07AE  00F4               	movwf	main@P+1
  1212     07AF                     l1380:
  1213                           
  1214                           ;main.c: 37:         if((PORTBbits.RB0 == 0 && PORTBbits.RB1 == 1) && (PORTBbits.RB2 == 
      +                          1 && PORTBbits.RB3 == 1)){
  1215     07AF  180D               	btfsc	13,0	;volatile
  1216     07B0  2FB2               	goto	u1221
  1217     07B1  2FB3               	goto	u1220
  1218     07B2                     u1221:
  1219     07B2  2FC3               	goto	l1390
  1220     07B3                     u1220:
  1221     07B3                     l1382:
  1222     07B3  1C8D               	btfss	13,1	;volatile
  1223     07B4  2FB6               	goto	u1231
  1224     07B5  2FB7               	goto	u1230
  1225     07B6                     u1231:
  1226     07B6  2FC3               	goto	l1390
  1227     07B7                     u1230:
  1228     07B7                     l1384:
  1229     07B7  1D0D               	btfss	13,2	;volatile
  1230     07B8  2FBA               	goto	u1241
  1231     07B9  2FBB               	goto	u1240
  1232     07BA                     u1241:
  1233     07BA  2FC3               	goto	l1390
  1234     07BB                     u1240:
  1235     07BB                     l1386:
  1236     07BB  1D8D               	btfss	13,3	;volatile
  1237     07BC  2FBE               	goto	u1251
  1238     07BD  2FBF               	goto	u1250
  1239     07BE                     u1251:
  1240     07BE  2FC3               	goto	l1390
  1241     07BF                     u1250:
  1242     07BF                     l1388:
  1243                           
  1244                           ;main.c: 38:             P=7;
  1245     07BF  3007               	movlw	7
  1246     07C0  00F3               	movwf	main@P
  1247     07C1  3000               	movlw	0
  1248     07C2  00F4               	movwf	main@P+1
  1249     07C3                     l1390:
  1250                           
  1251                           ;main.c: 40:         if((PORTBbits.RB0 == 1 && PORTBbits.RB1 == 0) && (PORTBbits.RB2 == 
      +                          0 && PORTBbits.RB3 == 0)){
  1252     07C3  1C0D               	btfss	13,0	;volatile
  1253     07C4  2FC6               	goto	u1261
  1254     07C5  2FC7               	goto	u1260
  1255     07C6                     u1261:
  1256     07C6  2FD7               	goto	l1400
  1257     07C7                     u1260:
  1258     07C7                     l1392:
  1259     07C7  188D               	btfsc	13,1	;volatile
  1260     07C8  2FCA               	goto	u1271
  1261     07C9  2FCB               	goto	u1270
  1262     07CA                     u1271:
  1263     07CA  2FD7               	goto	l1400
  1264     07CB                     u1270:
  1265     07CB                     l1394:
  1266     07CB  190D               	btfsc	13,2	;volatile
  1267     07CC  2FCE               	goto	u1281
  1268     07CD  2FCF               	goto	u1280
  1269     07CE                     u1281:
  1270     07CE  2FD7               	goto	l1400
  1271     07CF                     u1280:
  1272     07CF                     l1396:
  1273     07CF  198D               	btfsc	13,3	;volatile
  1274     07D0  2FD2               	goto	u1291
  1275     07D1  2FD3               	goto	u1290
  1276     07D2                     u1291:
  1277     07D2  2FD7               	goto	l1400
  1278     07D3                     u1290:
  1279     07D3                     l1398:
  1280                           
  1281                           ;main.c: 41:             P=8;
  1282     07D3  3008               	movlw	8
  1283     07D4  00F3               	movwf	main@P
  1284     07D5  3000               	movlw	0
  1285     07D6  00F4               	movwf	main@P+1
  1286     07D7                     l1400:
  1287                           
  1288                           ;main.c: 43:         if((PORTBbits.RB0 == 1 && PORTBbits.RB1 == 0) && (PORTBbits.RB2 == 
      +                          0 && PORTBbits.RB3 == 1)){
  1289     07D7  1C0D               	btfss	13,0	;volatile
  1290     07D8  2FDA               	goto	u1301
  1291     07D9  2FDB               	goto	u1300
  1292     07DA                     u1301:
  1293     07DA  2FEB               	goto	l1410
  1294     07DB                     u1300:
  1295     07DB                     l1402:
  1296     07DB  188D               	btfsc	13,1	;volatile
  1297     07DC  2FDE               	goto	u1311
  1298     07DD  2FDF               	goto	u1310
  1299     07DE                     u1311:
  1300     07DE  2FEB               	goto	l1410
  1301     07DF                     u1310:
  1302     07DF                     l1404:
  1303     07DF  190D               	btfsc	13,2	;volatile
  1304     07E0  2FE2               	goto	u1321
  1305     07E1  2FE3               	goto	u1320
  1306     07E2                     u1321:
  1307     07E2  2FEB               	goto	l1410
  1308     07E3                     u1320:
  1309     07E3                     l1406:
  1310     07E3  1D8D               	btfss	13,3	;volatile
  1311     07E4  2FE6               	goto	u1331
  1312     07E5  2FE7               	goto	u1330
  1313     07E6                     u1331:
  1314     07E6  2FEB               	goto	l1410
  1315     07E7                     u1330:
  1316     07E7                     l1408:
  1317                           
  1318                           ;main.c: 44:             P=9;
  1319     07E7  3009               	movlw	9
  1320     07E8  00F3               	movwf	main@P
  1321     07E9  3000               	movlw	0
  1322     07EA  00F4               	movwf	main@P+1
  1323     07EB                     l1410:
  1324                           
  1325                           ;main.c: 46:         Secuenciass(P);
  1326     07EB  0874               	movf	main@P+1,w
  1327     07EC  00F2               	movwf	Secuenciass@P1+1
  1328     07ED  0873               	movf	main@P,w
  1329     07EE  00F1               	movwf	Secuenciass@P1
  1330     07EF  3186  26C8  3187   	fcall	_Secuenciass
  1331     07F2  2F24               	goto	l1310
  1332     07F3  3180  2802         	ljmp	start
  1333     07F5                     __end_of_main:
  1334                           
  1335                           	psect	text1
  1336     06C8                     __ptext1:	
  1337 ;; *************** function _Secuenciass *****************
  1338 ;; Defined at:
  1339 ;;		line 433 in file "Secuencias.c"
  1340 ;; Parameters:    Size  Location     Type
  1341 ;;  P1              2    1[COMMON] int 
  1342 ;; Auto vars:     Size  Location     Type
  1343 ;;		None
  1344 ;; Return value:  Size  Location     Type
  1345 ;;                  1    wreg      void 
  1346 ;; Registers used:
  1347 ;;		wreg, fsr0l, fsr0h, status,2, status,0, pclath, cstack
  1348 ;; Tracked objects:
  1349 ;;		On entry : 0/0
  1350 ;;		On exit  : 0/0
  1351 ;;		Unchanged: 0/0
  1352 ;; Data sizes:     COMMON   BANK0   BANK1   BANK2   BANK3   BANK4   BANK5   BANK6   BANK7   BANK8   BANK9  BANK10  BANK1
      +1  BANK12
  1353 ;;      Params:         2       0       0       0       0       0       0       0       0       0       0       0       
      +0       0
  1354 ;;      Locals:         0       0       0       0       0       0       0       0       0       0       0       0       
      +0       0
  1355 ;;      Temps:          0       0       0       0       0       0       0       0       0       0       0       0       
      +0       0
  1356 ;;      Totals:         2       0       0       0       0       0       0       0       0       0       0       0       
      +0       0
  1357 ;;Total ram usage:        2 bytes
  1358 ;; Hardware stack levels used: 1
  1359 ;; Hardware stack levels required when called: 1
  1360 ;; This function calls:
  1361 ;;		_Secuencia0
  1362 ;;		_Secuencia1
  1363 ;;		_Secuencia2
  1364 ;;		_Secuencia3
  1365 ;;		_Secuencia4
  1366 ;;		_Secuencia5
  1367 ;;		_Secuencia6
  1368 ;;		_Secuencia7
  1369 ;;		_Secuencia8
  1370 ;;		_Secuencia9
  1371 ;; This function is called by:
  1372 ;;		_main
  1373 ;; This function uses a non-reentrant model
  1374 ;;
  1375                           
  1376     06C8                     _Secuenciass:	
  1377                           ;psect for function _Secuenciass
  1378                           
  1379     06C8                     l1268:	
  1380                           ;incstack = 0
  1381                           ; Regs used in _Secuenciass: [wreg-fsr0h+status,2+status,0+pclath+cstack]
  1382                           
  1383                           
  1384                           ;Secuencias.c: 434:     switch(P1){
  1385     06C8  2EF1               	goto	l1292
  1386     06C9                     l1270:
  1387                           
  1388                           ;Secuencias.c: 437:             Secuencia0();
  1389     06C9  3185  259A  3186   	fcall	_Secuencia0
  1390                           
  1391                           ;Secuencias.c: 438:             break;
  1392     06CC  2F16               	goto	l88
  1393     06CD                     l1272:
  1394                           
  1395                           ;Secuencias.c: 440:             Secuencia1();
  1396     06CD  3185  25BD  3186   	fcall	_Secuencia1
  1397                           
  1398                           ;Secuencias.c: 441:             break;
  1399     06D0  2F16               	goto	l88
  1400     06D1                     l1274:
  1401                           
  1402                           ;Secuencias.c: 443:             Secuencia2();
  1403     06D1  3185  25E0  3186   	fcall	_Secuencia2
  1404                           
  1405                           ;Secuencias.c: 444:             break;
  1406     06D4  2F16               	goto	l88
  1407     06D5                     l1276:
  1408                           
  1409                           ;Secuencias.c: 446:             Secuencia3();
  1410     06D5  3185  2552  3186   	fcall	_Secuencia3
  1411                           
  1412                           ;Secuencias.c: 447:             break;
  1413     06D8  2F16               	goto	l88
  1414     06D9                     l1278:
  1415                           
  1416                           ;Secuencias.c: 449:             Secuencia4();
  1417     06D9  3185  2564  3186   	fcall	_Secuencia4
  1418                           
  1419                           ;Secuencias.c: 450:             break;
  1420     06DC  2F16               	goto	l88
  1421     06DD                     l1280:
  1422                           
  1423                           ;Secuencias.c: 452:             Secuencia5();
  1424     06DD  3185  2576  3186   	fcall	_Secuencia5
  1425                           
  1426                           ;Secuencias.c: 453:             break;
  1427     06E0  2F16               	goto	l88
  1428     06E1                     l1282:
  1429                           
  1430                           ;Secuencias.c: 455:             Secuencia6();
  1431     06E1  3185  2588  3186   	fcall	_Secuencia6
  1432                           
  1433                           ;Secuencias.c: 456:             break;
  1434     06E4  2F16               	goto	l88
  1435     06E5                     l1284:
  1436                           
  1437                           ;Secuencias.c: 458:             Secuencia7();
  1438     06E5  3186  2644  3186   	fcall	_Secuencia7
  1439                           
  1440                           ;Secuencias.c: 459:             break;
  1441     06E8  2F16               	goto	l88
  1442     06E9                     l1286:
  1443                           
  1444                           ;Secuencias.c: 461:             Secuencia8();
  1445     06E9  3186  2686  3186   	fcall	_Secuencia8
  1446                           
  1447                           ;Secuencias.c: 462:             break;
  1448     06EC  2F16               	goto	l88
  1449     06ED                     l1288:
  1450                           
  1451                           ;Secuencias.c: 464:             Secuencia9();
  1452     06ED  3186  2603  3186   	fcall	_Secuencia9
  1453                           
  1454                           ;Secuencias.c: 465:             break;
  1455     06F0  2F16               	goto	l88
  1456     06F1                     l1292:
  1457                           
  1458                           ; Switch on 2 bytes has been partitioned into a top level switch of size 1, and 1 sub-sw
      +                          itches
  1459                           ; Switch size 1, requested type "simple"
  1460                           ; Number of cases is 1, Range of values is 0 to 0
  1461                           ; switch strategies available:
  1462                           ; Name         Instructions Cycles
  1463                           ; simple_byte            4     3 (average)
  1464                           ; direct_byte            8     6 (fixed)
  1465                           ; jumptable            260     6 (fixed)
  1466                           ;	Chosen strategy is simple_byte
  1467     06F1  0872               	movf	Secuenciass@P1+1,w
  1468     06F2  3A00               	xorlw	0	; case 0
  1469     06F3  1903               	skipnz
  1470     06F4  2EF6               	goto	l1432
  1471     06F5  2F16               	goto	l88
  1472     06F6                     l1432:
  1473                           
  1474                           ; Switch size 1, requested type "simple"
  1475                           ; Number of cases is 10, Range of values is 0 to 9
  1476                           ; switch strategies available:
  1477                           ; Name         Instructions Cycles
  1478                           ; direct_byte           26     6 (fixed)
  1479                           ; simple_byte           31    16 (average)
  1480                           ; jumptable            260     6 (fixed)
  1481                           ;	Chosen strategy is simple_byte
  1482     06F6  0871               	movf	Secuenciass@P1,w
  1483     06F7  3A00               	xorlw	0	; case 0
  1484     06F8  1903               	skipnz
  1485     06F9  2EC9               	goto	l1270
  1486     06FA  3A01               	xorlw	1	; case 1
  1487     06FB  1903               	skipnz
  1488     06FC  2ECD               	goto	l1272
  1489     06FD  3A03               	xorlw	3	; case 2
  1490     06FE  1903               	skipnz
  1491     06FF  2ED1               	goto	l1274
  1492     0700  3A01               	xorlw	1	; case 3
  1493     0701  1903               	skipnz
  1494     0702  2ED5               	goto	l1276
  1495     0703  3A07               	xorlw	7	; case 4
  1496     0704  1903               	skipnz
  1497     0705  2ED9               	goto	l1278
  1498     0706  3A01               	xorlw	1	; case 5
  1499     0707  1903               	skipnz
  1500     0708  2EDD               	goto	l1280
  1501     0709  3A03               	xorlw	3	; case 6
  1502     070A  1903               	skipnz
  1503     070B  2EE1               	goto	l1282
  1504     070C  3A01               	xorlw	1	; case 7
  1505     070D  1903               	skipnz
  1506     070E  2EE5               	goto	l1284
  1507     070F  3A0F               	xorlw	15	; case 8
  1508     0710  1903               	skipnz
  1509     0711  2EE9               	goto	l1286
  1510     0712  3A01               	xorlw	1	; case 9
  1511     0713  1903               	skipnz
  1512     0714  2EED               	goto	l1288
  1513     0715  2F16               	goto	l88
  1514     0716                     l88:
  1515     0716  0008               	return
  1516     0717                     __end_of_Secuenciass:
  1517                           
  1518                           	psect	text2
  1519     0603                     __ptext2:	
  1520 ;; *************** function _Secuencia9 *****************
  1521 ;; Defined at:
  1522 ;;		line 294 in file "Secuencias.c"
  1523 ;; Parameters:    Size  Location     Type
  1524 ;;		None
  1525 ;; Auto vars:     Size  Location     Type
  1526 ;;		None
  1527 ;; Return value:  Size  Location     Type
  1528 ;;                  1    wreg      void 
  1529 ;; Registers used:
  1530 ;;		None
  1531 ;; Tracked objects:
  1532 ;;		On entry : 0/0
  1533 ;;		On exit  : 0/0
  1534 ;;		Unchanged: 0/0
  1535 ;; Data sizes:     COMMON   BANK0   BANK1   BANK2   BANK3   BANK4   BANK5   BANK6   BANK7   BANK8   BANK9  BANK10  BANK1
      +1  BANK12
  1536 ;;      Params:         0       0       0       0       0       0       0       0       0       0       0       0       
      +0       0
  1537 ;;      Locals:         0       0       0       0       0       0       0       0       0       0       0       0       
      +0       0
  1538 ;;      Temps:          0       0       0       0       0       0       0       0       0       0       0       0       
      +0       0
  1539 ;;      Totals:         0       0       0       0       0       0       0       0       0       0       0       0       
      +0       0
  1540 ;;Total ram usage:        0 bytes
  1541 ;; Hardware stack levels used: 1
  1542 ;; This function calls:
  1543 ;;		Nothing
  1544 ;; This function is called by:
  1545 ;;		_Secuenciass
  1546 ;; This function uses a non-reentrant model
  1547 ;;
  1548                           
  1549     0603                     _Secuencia9:	
  1550                           ;psect for function _Secuencia9
  1551                           
  1552     0603                     l768:	
  1553                           ;incstack = 0
  1554                           ; Regs used in _Secuencia9: []
  1555                           
  1556                           
  1557                           ;Secuencias.c: 295:     LATCbits.LATC0 = 1;
  1558     0603  0022               	movlb	2	; select bank2
  1559     0604  140E               	bsf	14,0	;volatile
  1560                           
  1561                           ;Secuencias.c: 296:     LATCbits.LATC1 = 1;
  1562     0605  148E               	bsf	14,1	;volatile
  1563                           
  1564                           ;Secuencias.c: 297:     LATCbits.LATC2 = 1;
  1565     0606  150E               	bsf	14,2	;volatile
  1566                           
  1567                           ;Secuencias.c: 298:     LATCbits.LATC3 = 0;
  1568     0607  118E               	bcf	14,3	;volatile
  1569                           
  1570                           ;Secuencias.c: 299:     LATCbits.LATC4 = 0;
  1571     0608  120E               	bcf	14,4	;volatile
  1572                           
  1573                           ;Secuencias.c: 300:     LATCbits.LATC5 = 0;
  1574     0609  128E               	bcf	14,5	;volatile
  1575                           
  1576                           ;Secuencias.c: 301:     LATCbits.LATC6 = 0;
  1577     060A  130E               	bcf	14,6	;volatile
  1578                           
  1579                           ;Secuencias.c: 302:     LATCbits.LATC7 = 0;
  1580     060B  138E               	bcf	14,7	;volatile
  1581                           
  1582                           ;Secuencias.c: 304:     LATCbits.LATC0 = 0;
  1583     060C  100E               	bcf	14,0	;volatile
  1584                           
  1585                           ;Secuencias.c: 305:     LATCbits.LATC1 = 1;
  1586     060D  148E               	bsf	14,1	;volatile
  1587                           
  1588                           ;Secuencias.c: 306:     LATCbits.LATC2 = 1;
  1589     060E  150E               	bsf	14,2	;volatile
  1590                           
  1591                           ;Secuencias.c: 307:     LATCbits.LATC3 = 1;
  1592     060F  158E               	bsf	14,3	;volatile
  1593                           
  1594                           ;Secuencias.c: 308:     LATCbits.LATC4 = 0;
  1595     0610  120E               	bcf	14,4	;volatile
  1596                           
  1597                           ;Secuencias.c: 309:     LATCbits.LATC5 = 0;
  1598     0611  128E               	bcf	14,5	;volatile
  1599                           
  1600                           ;Secuencias.c: 310:     LATCbits.LATC6 = 0;
  1601     0612  130E               	bcf	14,6	;volatile
  1602                           
  1603                           ;Secuencias.c: 311:     LATCbits.LATC7 = 0;
  1604     0613  138E               	bcf	14,7	;volatile
  1605                           
  1606                           ;Secuencias.c: 313:     LATCbits.LATC0 = 0;
  1607     0614  100E               	bcf	14,0	;volatile
  1608                           
  1609                           ;Secuencias.c: 314:     LATCbits.LATC1 = 0;
  1610     0615  108E               	bcf	14,1	;volatile
  1611                           
  1612                           ;Secuencias.c: 315:     LATCbits.LATC2 = 1;
  1613     0616  150E               	bsf	14,2	;volatile
  1614                           
  1615                           ;Secuencias.c: 316:     LATCbits.LATC3 = 1;
  1616     0617  158E               	bsf	14,3	;volatile
  1617                           
  1618                           ;Secuencias.c: 317:     LATCbits.LATC4 = 1;
  1619     0618  160E               	bsf	14,4	;volatile
  1620                           
  1621                           ;Secuencias.c: 318:     LATCbits.LATC5 = 0;
  1622     0619  128E               	bcf	14,5	;volatile
  1623                           
  1624                           ;Secuencias.c: 319:     LATCbits.LATC6 = 0;
  1625     061A  130E               	bcf	14,6	;volatile
  1626                           
  1627                           ;Secuencias.c: 320:     LATCbits.LATC7 = 0;
  1628     061B  138E               	bcf	14,7	;volatile
  1629                           
  1630                           ;Secuencias.c: 322:     LATCbits.LATC0 = 0;
  1631     061C  100E               	bcf	14,0	;volatile
  1632                           
  1633                           ;Secuencias.c: 323:     LATCbits.LATC1 = 0;
  1634     061D  108E               	bcf	14,1	;volatile
  1635                           
  1636                           ;Secuencias.c: 324:     LATCbits.LATC2 = 0;
  1637     061E  110E               	bcf	14,2	;volatile
  1638                           
  1639                           ;Secuencias.c: 325:     LATCbits.LATC3 = 1;
  1640     061F  158E               	bsf	14,3	;volatile
  1641                           
  1642                           ;Secuencias.c: 326:     LATCbits.LATC4 = 1;
  1643     0620  160E               	bsf	14,4	;volatile
  1644                           
  1645                           ;Secuencias.c: 327:     LATCbits.LATC5 = 1;
  1646     0621  168E               	bsf	14,5	;volatile
  1647                           
  1648                           ;Secuencias.c: 328:     LATCbits.LATC6 = 0;
  1649     0622  130E               	bcf	14,6	;volatile
  1650                           
  1651                           ;Secuencias.c: 329:     LATCbits.LATC7 = 0;
  1652     0623  138E               	bcf	14,7	;volatile
  1653                           
  1654                           ;Secuencias.c: 331:     LATCbits.LATC1 = 0;
  1655     0624  108E               	bcf	14,1	;volatile
  1656                           
  1657                           ;Secuencias.c: 332:     LATCbits.LATC2 = 0;
  1658     0625  110E               	bcf	14,2	;volatile
  1659                           
  1660                           ;Secuencias.c: 333:     LATCbits.LATC3 = 0;
  1661     0626  118E               	bcf	14,3	;volatile
  1662                           
  1663                           ;Secuencias.c: 334:     LATCbits.LATC4 = 1;
  1664     0627  160E               	bsf	14,4	;volatile
  1665                           
  1666                           ;Secuencias.c: 335:     LATCbits.LATC5 = 1;
  1667     0628  168E               	bsf	14,5	;volatile
  1668                           
  1669                           ;Secuencias.c: 336:     LATCbits.LATC6 = 1;
  1670     0629  170E               	bsf	14,6	;volatile
  1671                           
  1672                           ;Secuencias.c: 337:     LATCbits.LATC7 = 0;
  1673     062A  138E               	bcf	14,7	;volatile
  1674                           
  1675                           ;Secuencias.c: 339:     LATCbits.LATC0 = 0;
  1676     062B  100E               	bcf	14,0	;volatile
  1677                           
  1678                           ;Secuencias.c: 340:     LATCbits.LATC1 = 0;
  1679     062C  108E               	bcf	14,1	;volatile
  1680                           
  1681                           ;Secuencias.c: 341:     LATCbits.LATC2 = 0;
  1682     062D  110E               	bcf	14,2	;volatile
  1683                           
  1684                           ;Secuencias.c: 342:     LATCbits.LATC3 = 0;
  1685     062E  118E               	bcf	14,3	;volatile
  1686                           
  1687                           ;Secuencias.c: 343:     LATCbits.LATC4 = 0;
  1688     062F  120E               	bcf	14,4	;volatile
  1689                           
  1690                           ;Secuencias.c: 344:     LATCbits.LATC5 = 1;
  1691     0630  168E               	bsf	14,5	;volatile
  1692                           
  1693                           ;Secuencias.c: 345:     LATCbits.LATC6 = 1;
  1694     0631  170E               	bsf	14,6	;volatile
  1695                           
  1696                           ;Secuencias.c: 346:     LATCbits.LATC7 = 1;
  1697     0632  178E               	bsf	14,7	;volatile
  1698                           
  1699                           ;Secuencias.c: 348:     LATCbits.LATC0 = 1;
  1700     0633  140E               	bsf	14,0	;volatile
  1701                           
  1702                           ;Secuencias.c: 349:     LATCbits.LATC1 = 0;
  1703     0634  108E               	bcf	14,1	;volatile
  1704                           
  1705                           ;Secuencias.c: 350:     LATCbits.LATC2 = 0;
  1706     0635  110E               	bcf	14,2	;volatile
  1707                           
  1708                           ;Secuencias.c: 351:     LATCbits.LATC3 = 0;
  1709     0636  118E               	bcf	14,3	;volatile
  1710                           
  1711                           ;Secuencias.c: 352:     LATCbits.LATC4 = 0;
  1712     0637  120E               	bcf	14,4	;volatile
  1713                           
  1714                           ;Secuencias.c: 353:     LATCbits.LATC5 = 0;
  1715     0638  128E               	bcf	14,5	;volatile
  1716                           
  1717                           ;Secuencias.c: 354:     LATCbits.LATC6 = 1;
  1718     0639  170E               	bsf	14,6	;volatile
  1719                           
  1720                           ;Secuencias.c: 355:     LATCbits.LATC7 = 1;
  1721     063A  178E               	bsf	14,7	;volatile
  1722                           
  1723                           ;Secuencias.c: 357:     LATCbits.LATC0 = 1;
  1724     063B  140E               	bsf	14,0	;volatile
  1725                           
  1726                           ;Secuencias.c: 358:     LATCbits.LATC1 = 1;
  1727     063C  148E               	bsf	14,1	;volatile
  1728                           
  1729                           ;Secuencias.c: 359:     LATCbits.LATC2 = 0;
  1730     063D  110E               	bcf	14,2	;volatile
  1731                           
  1732                           ;Secuencias.c: 360:     LATCbits.LATC3 = 0;
  1733     063E  118E               	bcf	14,3	;volatile
  1734                           
  1735                           ;Secuencias.c: 361:     LATCbits.LATC4 = 0;
  1736     063F  120E               	bcf	14,4	;volatile
  1737                           
  1738                           ;Secuencias.c: 362:     LATCbits.LATC5 = 0;
  1739     0640  128E               	bcf	14,5	;volatile
  1740                           
  1741                           ;Secuencias.c: 363:     LATCbits.LATC6 = 0;
  1742     0641  130E               	bcf	14,6	;volatile
  1743                           
  1744                           ;Secuencias.c: 364:     LATCbits.LATC7 = 1;
  1745     0642  178E               	bsf	14,7	;volatile
  1746     0643                     l70:
  1747     0643  0008               	return
  1748     0644                     __end_of_Secuencia9:
  1749                           
  1750                           	psect	text3
  1751     0686                     __ptext3:	
  1752 ;; *************** function _Secuencia8 *****************
  1753 ;; Defined at:
  1754 ;;		line 220 in file "Secuencias.c"
  1755 ;; Parameters:    Size  Location     Type
  1756 ;;		None
  1757 ;; Auto vars:     Size  Location     Type
  1758 ;;		None
  1759 ;; Return value:  Size  Location     Type
  1760 ;;                  1    wreg      void 
  1761 ;; Registers used:
  1762 ;;		None
  1763 ;; Tracked objects:
  1764 ;;		On entry : 0/0
  1765 ;;		On exit  : 0/0
  1766 ;;		Unchanged: 0/0
  1767 ;; Data sizes:     COMMON   BANK0   BANK1   BANK2   BANK3   BANK4   BANK5   BANK6   BANK7   BANK8   BANK9  BANK10  BANK1
      +1  BANK12
  1768 ;;      Params:         0       0       0       0       0       0       0       0       0       0       0       0       
      +0       0
  1769 ;;      Locals:         0       0       0       0       0       0       0       0       0       0       0       0       
      +0       0
  1770 ;;      Temps:          0       0       0       0       0       0       0       0       0       0       0       0       
      +0       0
  1771 ;;      Totals:         0       0       0       0       0       0       0       0       0       0       0       0       
      +0       0
  1772 ;;Total ram usage:        0 bytes
  1773 ;; Hardware stack levels used: 1
  1774 ;; This function calls:
  1775 ;;		Nothing
  1776 ;; This function is called by:
  1777 ;;		_Secuenciass
  1778 ;; This function uses a non-reentrant model
  1779 ;;
  1780                           
  1781     0686                     _Secuencia8:	
  1782                           ;psect for function _Secuencia8
  1783                           
  1784     0686                     l766:	
  1785                           ;incstack = 0
  1786                           ; Regs used in _Secuencia8: []
  1787                           
  1788                           
  1789                           ;Secuencias.c: 221:     LATCbits.LATC0 = 0;
  1790     0686  0022               	movlb	2	; select bank2
  1791     0687  100E               	bcf	14,0	;volatile
  1792                           
  1793                           ;Secuencias.c: 222:     LATCbits.LATC1 = 0;
  1794     0688  108E               	bcf	14,1	;volatile
  1795                           
  1796                           ;Secuencias.c: 223:     LATCbits.LATC2 = 0;
  1797     0689  110E               	bcf	14,2	;volatile
  1798                           
  1799                           ;Secuencias.c: 224:     LATCbits.LATC3 = 0;
  1800     068A  118E               	bcf	14,3	;volatile
  1801                           
  1802                           ;Secuencias.c: 225:     LATCbits.LATC4 = 0;
  1803     068B  120E               	bcf	14,4	;volatile
  1804                           
  1805                           ;Secuencias.c: 226:     LATCbits.LATC5 = 0;
  1806     068C  128E               	bcf	14,5	;volatile
  1807                           
  1808                           ;Secuencias.c: 227:     LATCbits.LATC6 = 1;
  1809     068D  170E               	bsf	14,6	;volatile
  1810                           
  1811                           ;Secuencias.c: 228:     LATCbits.LATC7 = 1;
  1812     068E  178E               	bsf	14,7	;volatile
  1813                           
  1814                           ;Secuencias.c: 230:     LATCbits.LATC0 = 0;
  1815     068F  100E               	bcf	14,0	;volatile
  1816                           
  1817                           ;Secuencias.c: 231:     LATCbits.LATC1 = 0;
  1818     0690  108E               	bcf	14,1	;volatile
  1819                           
  1820                           ;Secuencias.c: 232:     LATCbits.LATC2 = 0;
  1821     0691  110E               	bcf	14,2	;volatile
  1822                           
  1823                           ;Secuencias.c: 233:     LATCbits.LATC3 = 0;
  1824     0692  118E               	bcf	14,3	;volatile
  1825                           
  1826                           ;Secuencias.c: 234:     LATCbits.LATC4 = 0;
  1827     0693  120E               	bcf	14,4	;volatile
  1828                           
  1829                           ;Secuencias.c: 235:     LATCbits.LATC5 = 1;
  1830     0694  168E               	bsf	14,5	;volatile
  1831                           
  1832                           ;Secuencias.c: 236:     LATCbits.LATC6 = 1;
  1833     0695  170E               	bsf	14,6	;volatile
  1834                           
  1835                           ;Secuencias.c: 237:     LATCbits.LATC7 = 0;
  1836     0696  138E               	bcf	14,7	;volatile
  1837                           
  1838                           ;Secuencias.c: 239:     LATCbits.LATC0 = 0;
  1839     0697  100E               	bcf	14,0	;volatile
  1840                           
  1841                           ;Secuencias.c: 240:     LATCbits.LATC1 = 0;
  1842     0698  108E               	bcf	14,1	;volatile
  1843                           
  1844                           ;Secuencias.c: 241:     LATCbits.LATC2 = 0;
  1845     0699  110E               	bcf	14,2	;volatile
  1846                           
  1847                           ;Secuencias.c: 242:     LATCbits.LATC3 = 0;
  1848     069A  118E               	bcf	14,3	;volatile
  1849                           
  1850                           ;Secuencias.c: 243:     LATCbits.LATC4 = 1;
  1851     069B  160E               	bsf	14,4	;volatile
  1852                           
  1853                           ;Secuencias.c: 244:     LATCbits.LATC5 = 1;
  1854     069C  168E               	bsf	14,5	;volatile
  1855                           
  1856                           ;Secuencias.c: 245:     LATCbits.LATC6 = 0;
  1857     069D  130E               	bcf	14,6	;volatile
  1858                           
  1859                           ;Secuencias.c: 246:     LATCbits.LATC7 = 0;
  1860     069E  138E               	bcf	14,7	;volatile
  1861                           
  1862                           ;Secuencias.c: 248:     LATCbits.LATC0 = 0;
  1863     069F  100E               	bcf	14,0	;volatile
  1864                           
  1865                           ;Secuencias.c: 249:     LATCbits.LATC1 = 0;
  1866     06A0  108E               	bcf	14,1	;volatile
  1867                           
  1868                           ;Secuencias.c: 250:     LATCbits.LATC2 = 0;
  1869     06A1  110E               	bcf	14,2	;volatile
  1870                           
  1871                           ;Secuencias.c: 251:     LATCbits.LATC3 = 1;
  1872     06A2  158E               	bsf	14,3	;volatile
  1873                           
  1874                           ;Secuencias.c: 252:     LATCbits.LATC4 = 1;
  1875     06A3  160E               	bsf	14,4	;volatile
  1876                           
  1877                           ;Secuencias.c: 253:     LATCbits.LATC5 = 0;
  1878     06A4  128E               	bcf	14,5	;volatile
  1879                           
  1880                           ;Secuencias.c: 254:     LATCbits.LATC6 = 0;
  1881     06A5  130E               	bcf	14,6	;volatile
  1882                           
  1883                           ;Secuencias.c: 255:     LATCbits.LATC7 = 0;
  1884     06A6  138E               	bcf	14,7	;volatile
  1885                           
  1886                           ;Secuencias.c: 257:     LATCbits.LATC0 = 0;
  1887     06A7  100E               	bcf	14,0	;volatile
  1888                           
  1889                           ;Secuencias.c: 258:     LATCbits.LATC1 = 0;
  1890     06A8  108E               	bcf	14,1	;volatile
  1891                           
  1892                           ;Secuencias.c: 259:     LATCbits.LATC2 = 1;
  1893     06A9  150E               	bsf	14,2	;volatile
  1894                           
  1895                           ;Secuencias.c: 260:     LATCbits.LATC3 = 1;
  1896     06AA  158E               	bsf	14,3	;volatile
  1897                           
  1898                           ;Secuencias.c: 261:     LATCbits.LATC4 = 0;
  1899     06AB  120E               	bcf	14,4	;volatile
  1900                           
  1901                           ;Secuencias.c: 262:     LATCbits.LATC5 = 0;
  1902     06AC  128E               	bcf	14,5	;volatile
  1903                           
  1904                           ;Secuencias.c: 263:     LATCbits.LATC6 = 0;
  1905     06AD  130E               	bcf	14,6	;volatile
  1906                           
  1907                           ;Secuencias.c: 264:     LATCbits.LATC7 = 0;
  1908     06AE  138E               	bcf	14,7	;volatile
  1909                           
  1910                           ;Secuencias.c: 266:     LATCbits.LATC0 = 0;
  1911     06AF  100E               	bcf	14,0	;volatile
  1912                           
  1913                           ;Secuencias.c: 267:     LATCbits.LATC1 = 1;
  1914     06B0  148E               	bsf	14,1	;volatile
  1915                           
  1916                           ;Secuencias.c: 268:     LATCbits.LATC2 = 1;
  1917     06B1  150E               	bsf	14,2	;volatile
  1918                           
  1919                           ;Secuencias.c: 269:     LATCbits.LATC3 = 0;
  1920     06B2  118E               	bcf	14,3	;volatile
  1921                           
  1922                           ;Secuencias.c: 270:     LATCbits.LATC4 = 0;
  1923     06B3  120E               	bcf	14,4	;volatile
  1924                           
  1925                           ;Secuencias.c: 271:     LATCbits.LATC5 = 0;
  1926     06B4  128E               	bcf	14,5	;volatile
  1927                           
  1928                           ;Secuencias.c: 272:     LATCbits.LATC6 = 0;
  1929     06B5  130E               	bcf	14,6	;volatile
  1930                           
  1931                           ;Secuencias.c: 273:     LATCbits.LATC7 = 0;
  1932     06B6  138E               	bcf	14,7	;volatile
  1933                           
  1934                           ;Secuencias.c: 275:     LATCbits.LATC0 = 1;
  1935     06B7  140E               	bsf	14,0	;volatile
  1936                           
  1937                           ;Secuencias.c: 276:     LATCbits.LATC1 = 1;
  1938     06B8  148E               	bsf	14,1	;volatile
  1939                           
  1940                           ;Secuencias.c: 277:     LATCbits.LATC2 = 0;
  1941     06B9  110E               	bcf	14,2	;volatile
  1942                           
  1943                           ;Secuencias.c: 278:     LATCbits.LATC3 = 0;
  1944     06BA  118E               	bcf	14,3	;volatile
  1945                           
  1946                           ;Secuencias.c: 279:     LATCbits.LATC4 = 0;
  1947     06BB  120E               	bcf	14,4	;volatile
  1948                           
  1949                           ;Secuencias.c: 280:     LATCbits.LATC5 = 0;
  1950     06BC  128E               	bcf	14,5	;volatile
  1951                           
  1952                           ;Secuencias.c: 281:     LATCbits.LATC6 = 0;
  1953     06BD  130E               	bcf	14,6	;volatile
  1954                           
  1955                           ;Secuencias.c: 282:     LATCbits.LATC7 = 0;
  1956     06BE  138E               	bcf	14,7	;volatile
  1957                           
  1958                           ;Secuencias.c: 284:     LATCbits.LATC0 = 1;
  1959     06BF  140E               	bsf	14,0	;volatile
  1960                           
  1961                           ;Secuencias.c: 285:     LATCbits.LATC1 = 0;
  1962     06C0  108E               	bcf	14,1	;volatile
  1963                           
  1964                           ;Secuencias.c: 286:     LATCbits.LATC2 = 0;
  1965     06C1  110E               	bcf	14,2	;volatile
  1966                           
  1967                           ;Secuencias.c: 287:     LATCbits.LATC3 = 0;
  1968     06C2  118E               	bcf	14,3	;volatile
  1969                           
  1970                           ;Secuencias.c: 288:     LATCbits.LATC4 = 0;
  1971     06C3  120E               	bcf	14,4	;volatile
  1972                           
  1973                           ;Secuencias.c: 289:     LATCbits.LATC5 = 0;
  1974     06C4  128E               	bcf	14,5	;volatile
  1975                           
  1976                           ;Secuencias.c: 290:     LATCbits.LATC6 = 0;
  1977     06C5  130E               	bcf	14,6	;volatile
  1978                           
  1979                           ;Secuencias.c: 291:     LATCbits.LATC7 = 1;
  1980     06C6  178E               	bsf	14,7	;volatile
  1981     06C7                     l67:
  1982     06C7  0008               	return
  1983     06C8                     __end_of_Secuencia8:
  1984                           
  1985                           	psect	text4
  1986     0644                     __ptext4:	
  1987 ;; *************** function _Secuencia7 *****************
  1988 ;; Defined at:
  1989 ;;		line 145 in file "Secuencias.c"
  1990 ;; Parameters:    Size  Location     Type
  1991 ;;		None
  1992 ;; Auto vars:     Size  Location     Type
  1993 ;;		None
  1994 ;; Return value:  Size  Location     Type
  1995 ;;                  1    wreg      void 
  1996 ;; Registers used:
  1997 ;;		None
  1998 ;; Tracked objects:
  1999 ;;		On entry : 0/0
  2000 ;;		On exit  : 0/0
  2001 ;;		Unchanged: 0/0
  2002 ;; Data sizes:     COMMON   BANK0   BANK1   BANK2   BANK3   BANK4   BANK5   BANK6   BANK7   BANK8   BANK9  BANK10  BANK1
      +1  BANK12
  2003 ;;      Params:         0       0       0       0       0       0       0       0       0       0       0       0       
      +0       0
  2004 ;;      Locals:         0       0       0       0       0       0       0       0       0       0       0       0       
      +0       0
  2005 ;;      Temps:          0       0       0       0       0       0       0       0       0       0       0       0       
      +0       0
  2006 ;;      Totals:         0       0       0       0       0       0       0       0       0       0       0       0       
      +0       0
  2007 ;;Total ram usage:        0 bytes
  2008 ;; Hardware stack levels used: 1
  2009 ;; This function calls:
  2010 ;;		Nothing
  2011 ;; This function is called by:
  2012 ;;		_Secuenciass
  2013 ;; This function uses a non-reentrant model
  2014 ;;
  2015                           
  2016     0644                     _Secuencia7:	
  2017                           ;psect for function _Secuencia7
  2018                           
  2019     0644                     l764:	
  2020                           ;incstack = 0
  2021                           ; Regs used in _Secuencia7: []
  2022                           
  2023                           
  2024                           ;Secuencias.c: 146:     LATCbits.LATC0 = 0;
  2025     0644  0022               	movlb	2	; select bank2
  2026     0645  100E               	bcf	14,0	;volatile
  2027                           
  2028                           ;Secuencias.c: 147:     LATCbits.LATC1 = 0;
  2029     0646  108E               	bcf	14,1	;volatile
  2030                           
  2031                           ;Secuencias.c: 148:     LATCbits.LATC2 = 0;
  2032     0647  110E               	bcf	14,2	;volatile
  2033                           
  2034                           ;Secuencias.c: 149:     LATCbits.LATC3 = 0;
  2035     0648  118E               	bcf	14,3	;volatile
  2036                           
  2037                           ;Secuencias.c: 150:     LATCbits.LATC4 = 0;
  2038     0649  120E               	bcf	14,4	;volatile
  2039                           
  2040                           ;Secuencias.c: 151:     LATCbits.LATC5 = 0;
  2041     064A  128E               	bcf	14,5	;volatile
  2042                           
  2043                           ;Secuencias.c: 152:     LATCbits.LATC6 = 0;
  2044     064B  130E               	bcf	14,6	;volatile
  2045                           
  2046                           ;Secuencias.c: 153:     LATCbits.LATC7 = 1;
  2047     064C  178E               	bsf	14,7	;volatile
  2048                           
  2049                           ;Secuencias.c: 155:     LATCbits.LATC0 = 0;
  2050     064D  100E               	bcf	14,0	;volatile
  2051                           
  2052                           ;Secuencias.c: 156:     LATCbits.LATC1 = 0;
  2053     064E  108E               	bcf	14,1	;volatile
  2054                           
  2055                           ;Secuencias.c: 157:     LATCbits.LATC2 = 0;
  2056     064F  110E               	bcf	14,2	;volatile
  2057                           
  2058                           ;Secuencias.c: 158:     LATCbits.LATC3 = 0;
  2059     0650  118E               	bcf	14,3	;volatile
  2060                           
  2061                           ;Secuencias.c: 159:     LATCbits.LATC4 = 0;
  2062     0651  120E               	bcf	14,4	;volatile
  2063                           
  2064                           ;Secuencias.c: 160:     LATCbits.LATC5 = 0;
  2065     0652  128E               	bcf	14,5	;volatile
  2066                           
  2067                           ;Secuencias.c: 161:     LATCbits.LATC6 = 1;
  2068     0653  170E               	bsf	14,6	;volatile
  2069                           
  2070                           ;Secuencias.c: 162:     LATCbits.LATC7 = 0;
  2071     0654  138E               	bcf	14,7	;volatile
  2072                           
  2073                           ;Secuencias.c: 164:     LATCbits.LATC0 = 0;
  2074     0655  100E               	bcf	14,0	;volatile
  2075                           
  2076                           ;Secuencias.c: 165:     LATCbits.LATC1 = 0;
  2077     0656  108E               	bcf	14,1	;volatile
  2078                           
  2079                           ;Secuencias.c: 166:     LATCbits.LATC2 = 0;
  2080     0657  110E               	bcf	14,2	;volatile
  2081                           
  2082                           ;Secuencias.c: 167:     LATCbits.LATC3 = 0;
  2083     0658  118E               	bcf	14,3	;volatile
  2084                           
  2085                           ;Secuencias.c: 168:     LATCbits.LATC4 = 0;
  2086     0659  120E               	bcf	14,4	;volatile
  2087                           
  2088                           ;Secuencias.c: 169:     LATCbits.LATC5 = 1;
  2089     065A  168E               	bsf	14,5	;volatile
  2090                           
  2091                           ;Secuencias.c: 170:     LATCbits.LATC6 = 0;
  2092     065B  130E               	bcf	14,6	;volatile
  2093                           
  2094                           ;Secuencias.c: 171:     LATCbits.LATC7 = 0;
  2095     065C  138E               	bcf	14,7	;volatile
  2096                           
  2097                           ;Secuencias.c: 173:     LATCbits.LATC0 = 0;
  2098     065D  100E               	bcf	14,0	;volatile
  2099                           
  2100                           ;Secuencias.c: 174:     LATCbits.LATC1 = 0;
  2101     065E  108E               	bcf	14,1	;volatile
  2102                           
  2103                           ;Secuencias.c: 175:     LATCbits.LATC2 = 0;
  2104     065F  110E               	bcf	14,2	;volatile
  2105                           
  2106                           ;Secuencias.c: 176:     LATCbits.LATC3 = 0;
  2107     0660  118E               	bcf	14,3	;volatile
  2108                           
  2109                           ;Secuencias.c: 177:     LATCbits.LATC4 = 1;
  2110     0661  160E               	bsf	14,4	;volatile
  2111                           
  2112                           ;Secuencias.c: 178:     LATCbits.LATC5 = 0;
  2113     0662  128E               	bcf	14,5	;volatile
  2114                           
  2115                           ;Secuencias.c: 179:     LATCbits.LATC6 = 0;
  2116     0663  130E               	bcf	14,6	;volatile
  2117                           
  2118                           ;Secuencias.c: 180:     LATCbits.LATC7 = 0;
  2119     0664  138E               	bcf	14,7	;volatile
  2120                           
  2121                           ;Secuencias.c: 182:     LATCbits.LATC0 = 0;
  2122     0665  100E               	bcf	14,0	;volatile
  2123                           
  2124                           ;Secuencias.c: 183:     LATCbits.LATC1 = 0;
  2125     0666  108E               	bcf	14,1	;volatile
  2126                           
  2127                           ;Secuencias.c: 184:     LATCbits.LATC2 = 0;
  2128     0667  110E               	bcf	14,2	;volatile
  2129                           
  2130                           ;Secuencias.c: 185:     LATCbits.LATC3 = 1;
  2131     0668  158E               	bsf	14,3	;volatile
  2132                           
  2133                           ;Secuencias.c: 186:     LATCbits.LATC4 = 0;
  2134     0669  120E               	bcf	14,4	;volatile
  2135                           
  2136                           ;Secuencias.c: 187:     LATCbits.LATC5 = 0;
  2137     066A  128E               	bcf	14,5	;volatile
  2138                           
  2139                           ;Secuencias.c: 188:     LATCbits.LATC6 = 0;
  2140     066B  130E               	bcf	14,6	;volatile
  2141                           
  2142                           ;Secuencias.c: 189:     LATCbits.LATC7 = 0;
  2143     066C  138E               	bcf	14,7	;volatile
  2144                           
  2145                           ;Secuencias.c: 191:     LATCbits.LATC0 = 0;
  2146     066D  100E               	bcf	14,0	;volatile
  2147                           
  2148                           ;Secuencias.c: 192:     LATCbits.LATC1 = 0;
  2149     066E  108E               	bcf	14,1	;volatile
  2150                           
  2151                           ;Secuencias.c: 193:     LATCbits.LATC2 = 1;
  2152     066F  150E               	bsf	14,2	;volatile
  2153                           
  2154                           ;Secuencias.c: 194:     LATCbits.LATC3 = 0;
  2155     0670  118E               	bcf	14,3	;volatile
  2156                           
  2157                           ;Secuencias.c: 195:     LATCbits.LATC4 = 0;
  2158     0671  120E               	bcf	14,4	;volatile
  2159                           
  2160                           ;Secuencias.c: 196:     LATCbits.LATC5 = 0;
  2161     0672  128E               	bcf	14,5	;volatile
  2162                           
  2163                           ;Secuencias.c: 197:     LATCbits.LATC6 = 0;
  2164     0673  130E               	bcf	14,6	;volatile
  2165                           
  2166                           ;Secuencias.c: 198:     LATCbits.LATC7 = 0;
  2167     0674  138E               	bcf	14,7	;volatile
  2168                           
  2169                           ;Secuencias.c: 200:     LATCbits.LATC0 = 0;
  2170     0675  100E               	bcf	14,0	;volatile
  2171                           
  2172                           ;Secuencias.c: 201:     LATCbits.LATC1 = 1;
  2173     0676  148E               	bsf	14,1	;volatile
  2174                           
  2175                           ;Secuencias.c: 202:     LATCbits.LATC2 = 0;
  2176     0677  110E               	bcf	14,2	;volatile
  2177                           
  2178                           ;Secuencias.c: 203:     LATCbits.LATC3 = 0;
  2179     0678  118E               	bcf	14,3	;volatile
  2180                           
  2181                           ;Secuencias.c: 204:     LATCbits.LATC4 = 0;
  2182     0679  120E               	bcf	14,4	;volatile
  2183                           
  2184                           ;Secuencias.c: 205:     LATCbits.LATC5 = 0;
  2185     067A  128E               	bcf	14,5	;volatile
  2186                           
  2187                           ;Secuencias.c: 206:     LATCbits.LATC6 = 0;
  2188     067B  130E               	bcf	14,6	;volatile
  2189                           
  2190                           ;Secuencias.c: 207:     LATCbits.LATC7 = 0;
  2191     067C  138E               	bcf	14,7	;volatile
  2192                           
  2193                           ;Secuencias.c: 209:     LATCbits.LATC0 = 1;
  2194     067D  140E               	bsf	14,0	;volatile
  2195                           
  2196                           ;Secuencias.c: 210:     LATCbits.LATC1 = 0;
  2197     067E  108E               	bcf	14,1	;volatile
  2198                           
  2199                           ;Secuencias.c: 211:     LATCbits.LATC2 = 0;
  2200     067F  110E               	bcf	14,2	;volatile
  2201                           
  2202                           ;Secuencias.c: 212:     LATCbits.LATC3 = 0;
  2203     0680  118E               	bcf	14,3	;volatile
  2204                           
  2205                           ;Secuencias.c: 213:     LATCbits.LATC4 = 0;
  2206     0681  120E               	bcf	14,4	;volatile
  2207                           
  2208                           ;Secuencias.c: 214:     LATCbits.LATC5 = 0;
  2209     0682  128E               	bcf	14,5	;volatile
  2210                           
  2211                           ;Secuencias.c: 215:     LATCbits.LATC6 = 0;
  2212     0683  130E               	bcf	14,6	;volatile
  2213                           
  2214                           ;Secuencias.c: 216:     LATCbits.LATC7 = 0;
  2215     0684  138E               	bcf	14,7	;volatile
  2216     0685                     l64:
  2217     0685  0008               	return
  2218     0686                     __end_of_Secuencia7:
  2219                           
  2220                           	psect	text5
  2221     0588                     __ptext5:	
  2222 ;; *************** function _Secuencia6 *****************
  2223 ;; Defined at:
  2224 ;;		line 125 in file "Secuencias.c"
  2225 ;; Parameters:    Size  Location     Type
  2226 ;;		None
  2227 ;; Auto vars:     Size  Location     Type
  2228 ;;		None
  2229 ;; Return value:  Size  Location     Type
  2230 ;;                  1    wreg      void 
  2231 ;; Registers used:
  2232 ;;		None
  2233 ;; Tracked objects:
  2234 ;;		On entry : 0/0
  2235 ;;		On exit  : 0/0
  2236 ;;		Unchanged: 0/0
  2237 ;; Data sizes:     COMMON   BANK0   BANK1   BANK2   BANK3   BANK4   BANK5   BANK6   BANK7   BANK8   BANK9  BANK10  BANK1
      +1  BANK12
  2238 ;;      Params:         0       0       0       0       0       0       0       0       0       0       0       0       
      +0       0
  2239 ;;      Locals:         0       0       0       0       0       0       0       0       0       0       0       0       
      +0       0
  2240 ;;      Temps:          0       0       0       0       0       0       0       0       0       0       0       0       
      +0       0
  2241 ;;      Totals:         0       0       0       0       0       0       0       0       0       0       0       0       
      +0       0
  2242 ;;Total ram usage:        0 bytes
  2243 ;; Hardware stack levels used: 1
  2244 ;; This function calls:
  2245 ;;		Nothing
  2246 ;; This function is called by:
  2247 ;;		_Secuenciass
  2248 ;; This function uses a non-reentrant model
  2249 ;;
  2250                           
  2251     0588                     _Secuencia6:	
  2252                           ;psect for function _Secuencia6
  2253                           
  2254     0588                     l762:	
  2255                           ;incstack = 0
  2256                           ; Regs used in _Secuencia6: []
  2257                           
  2258                           
  2259                           ;Secuencias.c: 126:     LATCbits.LATC0 = 0;
  2260     0588  0022               	movlb	2	; select bank2
  2261     0589  100E               	bcf	14,0	;volatile
  2262                           
  2263                           ;Secuencias.c: 127:     LATCbits.LATC1 = 0;
  2264     058A  108E               	bcf	14,1	;volatile
  2265                           
  2266                           ;Secuencias.c: 128:     LATCbits.LATC2 = 1;
  2267     058B  150E               	bsf	14,2	;volatile
  2268                           
  2269                           ;Secuencias.c: 129:     LATCbits.LATC3 = 1;
  2270     058C  158E               	bsf	14,3	;volatile
  2271                           
  2272                           ;Secuencias.c: 130:     LATCbits.LATC4 = 0;
  2273     058D  120E               	bcf	14,4	;volatile
  2274                           
  2275                           ;Secuencias.c: 131:     LATCbits.LATC5 = 0;
  2276     058E  128E               	bcf	14,5	;volatile
  2277                           
  2278                           ;Secuencias.c: 132:     LATCbits.LATC6 = 1;
  2279     058F  170E               	bsf	14,6	;volatile
  2280                           
  2281                           ;Secuencias.c: 133:     LATCbits.LATC7 = 1;
  2282     0590  178E               	bsf	14,7	;volatile
  2283                           
  2284                           ;Secuencias.c: 135:     LATCbits.LATC0 = 0;
  2285     0591  100E               	bcf	14,0	;volatile
  2286                           
  2287                           ;Secuencias.c: 136:     LATCbits.LATC1 = 0;
  2288     0592  108E               	bcf	14,1	;volatile
  2289                           
  2290                           ;Secuencias.c: 137:     LATCbits.LATC2 = 0;
  2291     0593  110E               	bcf	14,2	;volatile
  2292                           
  2293                           ;Secuencias.c: 138:     LATCbits.LATC3 = 0;
  2294     0594  118E               	bcf	14,3	;volatile
  2295                           
  2296                           ;Secuencias.c: 139:     LATCbits.LATC4 = 0;
  2297     0595  120E               	bcf	14,4	;volatile
  2298                           
  2299                           ;Secuencias.c: 140:     LATCbits.LATC5 = 0;
  2300     0596  128E               	bcf	14,5	;volatile
  2301                           
  2302                           ;Secuencias.c: 141:     LATCbits.LATC6 = 0;
  2303     0597  130E               	bcf	14,6	;volatile
  2304                           
  2305                           ;Secuencias.c: 142:     LATCbits.LATC7 = 0;
  2306     0598  138E               	bcf	14,7	;volatile
  2307     0599                     l61:
  2308     0599  0008               	return
  2309     059A                     __end_of_Secuencia6:
  2310                           
  2311                           	psect	text6
  2312     0576                     __ptext6:	
  2313 ;; *************** function _Secuencia5 *****************
  2314 ;; Defined at:
  2315 ;;		line 105 in file "Secuencias.c"
  2316 ;; Parameters:    Size  Location     Type
  2317 ;;		None
  2318 ;; Auto vars:     Size  Location     Type
  2319 ;;		None
  2320 ;; Return value:  Size  Location     Type
  2321 ;;                  1    wreg      void 
  2322 ;; Registers used:
  2323 ;;		None
  2324 ;; Tracked objects:
  2325 ;;		On entry : 0/0
  2326 ;;		On exit  : 0/0
  2327 ;;		Unchanged: 0/0
  2328 ;; Data sizes:     COMMON   BANK0   BANK1   BANK2   BANK3   BANK4   BANK5   BANK6   BANK7   BANK8   BANK9  BANK10  BANK1
      +1  BANK12
  2329 ;;      Params:         0       0       0       0       0       0       0       0       0       0       0       0       
      +0       0
  2330 ;;      Locals:         0       0       0       0       0       0       0       0       0       0       0       0       
      +0       0
  2331 ;;      Temps:          0       0       0       0       0       0       0       0       0       0       0       0       
      +0       0
  2332 ;;      Totals:         0       0       0       0       0       0       0       0       0       0       0       0       
      +0       0
  2333 ;;Total ram usage:        0 bytes
  2334 ;; Hardware stack levels used: 1
  2335 ;; This function calls:
  2336 ;;		Nothing
  2337 ;; This function is called by:
  2338 ;;		_Secuenciass
  2339 ;; This function uses a non-reentrant model
  2340 ;;
  2341                           
  2342     0576                     _Secuencia5:	
  2343                           ;psect for function _Secuencia5
  2344                           
  2345     0576                     l760:	
  2346                           ;incstack = 0
  2347                           ; Regs used in _Secuencia5: []
  2348                           
  2349                           
  2350                           ;Secuencias.c: 106:     LATCbits.LATC0 = 1;
  2351     0576  0022               	movlb	2	; select bank2
  2352     0577  140E               	bsf	14,0	;volatile
  2353                           
  2354                           ;Secuencias.c: 107:     LATCbits.LATC1 = 1;
  2355     0578  148E               	bsf	14,1	;volatile
  2356                           
  2357                           ;Secuencias.c: 108:     LATCbits.LATC2 = 0;
  2358     0579  110E               	bcf	14,2	;volatile
  2359                           
  2360                           ;Secuencias.c: 109:     LATCbits.LATC3 = 0;
  2361     057A  118E               	bcf	14,3	;volatile
  2362                           
  2363                           ;Secuencias.c: 110:     LATCbits.LATC4 = 1;
  2364     057B  160E               	bsf	14,4	;volatile
  2365                           
  2366                           ;Secuencias.c: 111:     LATCbits.LATC5 = 1;
  2367     057C  168E               	bsf	14,5	;volatile
  2368                           
  2369                           ;Secuencias.c: 112:     LATCbits.LATC6 = 0;
  2370     057D  130E               	bcf	14,6	;volatile
  2371                           
  2372                           ;Secuencias.c: 113:     LATCbits.LATC7 = 0;
  2373     057E  138E               	bcf	14,7	;volatile
  2374                           
  2375                           ;Secuencias.c: 115:     LATCbits.LATC0 = 0;
  2376     057F  100E               	bcf	14,0	;volatile
  2377                           
  2378                           ;Secuencias.c: 116:     LATCbits.LATC1 = 0;
  2379     0580  108E               	bcf	14,1	;volatile
  2380                           
  2381                           ;Secuencias.c: 117:     LATCbits.LATC2 = 0;
  2382     0581  110E               	bcf	14,2	;volatile
  2383                           
  2384                           ;Secuencias.c: 118:     LATCbits.LATC3 = 0;
  2385     0582  118E               	bcf	14,3	;volatile
  2386                           
  2387                           ;Secuencias.c: 119:     LATCbits.LATC4 = 0;
  2388     0583  120E               	bcf	14,4	;volatile
  2389                           
  2390                           ;Secuencias.c: 120:     LATCbits.LATC5 = 0;
  2391     0584  128E               	bcf	14,5	;volatile
  2392                           
  2393                           ;Secuencias.c: 121:     LATCbits.LATC6 = 0;
  2394     0585  130E               	bcf	14,6	;volatile
  2395                           
  2396                           ;Secuencias.c: 122:     LATCbits.LATC7 = 0;
  2397     0586  138E               	bcf	14,7	;volatile
  2398     0587                     l58:
  2399     0587  0008               	return
  2400     0588                     __end_of_Secuencia5:
  2401                           
  2402                           	psect	text7
  2403     0564                     __ptext7:	
  2404 ;; *************** function _Secuencia4 *****************
  2405 ;; Defined at:
  2406 ;;		line 85 in file "Secuencias.c"
  2407 ;; Parameters:    Size  Location     Type
  2408 ;;		None
  2409 ;; Auto vars:     Size  Location     Type
  2410 ;;		None
  2411 ;; Return value:  Size  Location     Type
  2412 ;;                  1    wreg      void 
  2413 ;; Registers used:
  2414 ;;		None
  2415 ;; Tracked objects:
  2416 ;;		On entry : 0/0
  2417 ;;		On exit  : 0/0
  2418 ;;		Unchanged: 0/0
  2419 ;; Data sizes:     COMMON   BANK0   BANK1   BANK2   BANK3   BANK4   BANK5   BANK6   BANK7   BANK8   BANK9  BANK10  BANK1
      +1  BANK12
  2420 ;;      Params:         0       0       0       0       0       0       0       0       0       0       0       0       
      +0       0
  2421 ;;      Locals:         0       0       0       0       0       0       0       0       0       0       0       0       
      +0       0
  2422 ;;      Temps:          0       0       0       0       0       0       0       0       0       0       0       0       
      +0       0
  2423 ;;      Totals:         0       0       0       0       0       0       0       0       0       0       0       0       
      +0       0
  2424 ;;Total ram usage:        0 bytes
  2425 ;; Hardware stack levels used: 1
  2426 ;; This function calls:
  2427 ;;		Nothing
  2428 ;; This function is called by:
  2429 ;;		_Secuenciass
  2430 ;; This function uses a non-reentrant model
  2431 ;;
  2432                           
  2433     0564                     _Secuencia4:	
  2434                           ;psect for function _Secuencia4
  2435                           
  2436     0564                     l758:	
  2437                           ;incstack = 0
  2438                           ; Regs used in _Secuencia4: []
  2439                           
  2440                           
  2441                           ;Secuencias.c: 86:     LATCbits.LATC0 = 0;
  2442     0564  0022               	movlb	2	; select bank2
  2443     0565  100E               	bcf	14,0	;volatile
  2444                           
  2445                           ;Secuencias.c: 87:     LATCbits.LATC1 = 0;
  2446     0566  108E               	bcf	14,1	;volatile
  2447                           
  2448                           ;Secuencias.c: 88:     LATCbits.LATC2 = 0;
  2449     0567  110E               	bcf	14,2	;volatile
  2450                           
  2451                           ;Secuencias.c: 89:     LATCbits.LATC3 = 0;
  2452     0568  118E               	bcf	14,3	;volatile
  2453                           
  2454                           ;Secuencias.c: 90:     LATCbits.LATC4 = 1;
  2455     0569  160E               	bsf	14,4	;volatile
  2456                           
  2457                           ;Secuencias.c: 91:     LATCbits.LATC5 = 1;
  2458     056A  168E               	bsf	14,5	;volatile
  2459                           
  2460                           ;Secuencias.c: 92:     LATCbits.LATC6 = 1;
  2461     056B  170E               	bsf	14,6	;volatile
  2462                           
  2463                           ;Secuencias.c: 93:     LATCbits.LATC7 = 1;
  2464     056C  178E               	bsf	14,7	;volatile
  2465                           
  2466                           ;Secuencias.c: 95:     LATCbits.LATC0 = 0;
  2467     056D  100E               	bcf	14,0	;volatile
  2468                           
  2469                           ;Secuencias.c: 96:     LATCbits.LATC1 = 0;
  2470     056E  108E               	bcf	14,1	;volatile
  2471                           
  2472                           ;Secuencias.c: 97:     LATCbits.LATC2 = 0;
  2473     056F  110E               	bcf	14,2	;volatile
  2474                           
  2475                           ;Secuencias.c: 98:     LATCbits.LATC3 = 0;
  2476     0570  118E               	bcf	14,3	;volatile
  2477                           
  2478                           ;Secuencias.c: 99:     LATCbits.LATC4 = 0;
  2479     0571  120E               	bcf	14,4	;volatile
  2480                           
  2481                           ;Secuencias.c: 100:     LATCbits.LATC5 = 0;
  2482     0572  128E               	bcf	14,5	;volatile
  2483                           
  2484                           ;Secuencias.c: 101:     LATCbits.LATC6 = 0;
  2485     0573  130E               	bcf	14,6	;volatile
  2486                           
  2487                           ;Secuencias.c: 102:     LATCbits.LATC7 = 0;
  2488     0574  138E               	bcf	14,7	;volatile
  2489     0575                     l55:
  2490     0575  0008               	return
  2491     0576                     __end_of_Secuencia4:
  2492                           
  2493                           	psect	text8
  2494     0552                     __ptext8:	
  2495 ;; *************** function _Secuencia3 *****************
  2496 ;; Defined at:
  2497 ;;		line 65 in file "Secuencias.c"
  2498 ;; Parameters:    Size  Location     Type
  2499 ;;		None
  2500 ;; Auto vars:     Size  Location     Type
  2501 ;;		None
  2502 ;; Return value:  Size  Location     Type
  2503 ;;                  1    wreg      void 
  2504 ;; Registers used:
  2505 ;;		None
  2506 ;; Tracked objects:
  2507 ;;		On entry : 0/0
  2508 ;;		On exit  : 0/0
  2509 ;;		Unchanged: 0/0
  2510 ;; Data sizes:     COMMON   BANK0   BANK1   BANK2   BANK3   BANK4   BANK5   BANK6   BANK7   BANK8   BANK9  BANK10  BANK1
      +1  BANK12
  2511 ;;      Params:         0       0       0       0       0       0       0       0       0       0       0       0       
      +0       0
  2512 ;;      Locals:         0       0       0       0       0       0       0       0       0       0       0       0       
      +0       0
  2513 ;;      Temps:          0       0       0       0       0       0       0       0       0       0       0       0       
      +0       0
  2514 ;;      Totals:         0       0       0       0       0       0       0       0       0       0       0       0       
      +0       0
  2515 ;;Total ram usage:        0 bytes
  2516 ;; Hardware stack levels used: 1
  2517 ;; This function calls:
  2518 ;;		Nothing
  2519 ;; This function is called by:
  2520 ;;		_Secuenciass
  2521 ;; This function uses a non-reentrant model
  2522 ;;
  2523                           
  2524     0552                     _Secuencia3:	
  2525                           ;psect for function _Secuencia3
  2526                           
  2527     0552                     l756:	
  2528                           ;incstack = 0
  2529                           ; Regs used in _Secuencia3: []
  2530                           
  2531                           
  2532                           ;Secuencias.c: 66:     LATCbits.LATC0 = 1;
  2533     0552  0022               	movlb	2	; select bank2
  2534     0553  140E               	bsf	14,0	;volatile
  2535                           
  2536                           ;Secuencias.c: 67:     LATCbits.LATC1 = 1;
  2537     0554  148E               	bsf	14,1	;volatile
  2538                           
  2539                           ;Secuencias.c: 68:     LATCbits.LATC2 = 1;
  2540     0555  150E               	bsf	14,2	;volatile
  2541                           
  2542                           ;Secuencias.c: 69:     LATCbits.LATC3 = 1;
  2543     0556  158E               	bsf	14,3	;volatile
  2544                           
  2545                           ;Secuencias.c: 70:     LATCbits.LATC4 = 0;
  2546     0557  120E               	bcf	14,4	;volatile
  2547                           
  2548                           ;Secuencias.c: 71:     LATCbits.LATC5 = 0;
  2549     0558  128E               	bcf	14,5	;volatile
  2550                           
  2551                           ;Secuencias.c: 72:     LATCbits.LATC6 = 0;
  2552     0559  130E               	bcf	14,6	;volatile
  2553                           
  2554                           ;Secuencias.c: 73:     LATCbits.LATC7 = 0;
  2555     055A  138E               	bcf	14,7	;volatile
  2556                           
  2557                           ;Secuencias.c: 75:     LATCbits.LATC0 = 0;
  2558     055B  100E               	bcf	14,0	;volatile
  2559                           
  2560                           ;Secuencias.c: 76:     LATCbits.LATC1 = 0;
  2561     055C  108E               	bcf	14,1	;volatile
  2562                           
  2563                           ;Secuencias.c: 77:     LATCbits.LATC2 = 0;
  2564     055D  110E               	bcf	14,2	;volatile
  2565                           
  2566                           ;Secuencias.c: 78:     LATCbits.LATC3 = 0;
  2567     055E  118E               	bcf	14,3	;volatile
  2568                           
  2569                           ;Secuencias.c: 79:     LATCbits.LATC4 = 0;
  2570     055F  120E               	bcf	14,4	;volatile
  2571                           
  2572                           ;Secuencias.c: 80:     LATCbits.LATC5 = 0;
  2573     0560  128E               	bcf	14,5	;volatile
  2574                           
  2575                           ;Secuencias.c: 81:     LATCbits.LATC6 = 0;
  2576     0561  130E               	bcf	14,6	;volatile
  2577                           
  2578                           ;Secuencias.c: 82:     LATCbits.LATC7 = 0;
  2579     0562  138E               	bcf	14,7	;volatile
  2580     0563                     l52:
  2581     0563  0008               	return
  2582     0564                     __end_of_Secuencia3:
  2583                           
  2584                           	psect	text9
  2585     05E0                     __ptext9:	
  2586 ;; *************** function _Secuencia2 *****************
  2587 ;; Defined at:
  2588 ;;		line 45 in file "Secuencias.c"
  2589 ;; Parameters:    Size  Location     Type
  2590 ;;		None
  2591 ;; Auto vars:     Size  Location     Type
  2592 ;;		None
  2593 ;; Return value:  Size  Location     Type
  2594 ;;                  1    wreg      void 
  2595 ;; Registers used:
  2596 ;;		wreg
  2597 ;; Tracked objects:
  2598 ;;		On entry : 0/0
  2599 ;;		On exit  : 0/0
  2600 ;;		Unchanged: 0/0
  2601 ;; Data sizes:     COMMON   BANK0   BANK1   BANK2   BANK3   BANK4   BANK5   BANK6   BANK7   BANK8   BANK9  BANK10  BANK1
      +1  BANK12
  2602 ;;      Params:         0       0       0       0       0       0       0       0       0       0       0       0       
      +0       0
  2603 ;;      Locals:         0       0       0       0       0       0       0       0       0       0       0       0       
      +0       0
  2604 ;;      Temps:          1       0       0       0       0       0       0       0       0       0       0       0       
      +0       0
  2605 ;;      Totals:         1       0       0       0       0       0       0       0       0       0       0       0       
      +0       0
  2606 ;;Total ram usage:        1 bytes
  2607 ;; Hardware stack levels used: 1
  2608 ;; This function calls:
  2609 ;;		Nothing
  2610 ;; This function is called by:
  2611 ;;		_Secuenciass
  2612 ;; This function uses a non-reentrant model
  2613 ;;
  2614                           
  2615     05E0                     _Secuencia2:	
  2616                           ;psect for function _Secuencia2
  2617                           
  2618     05E0                     l736:	
  2619                           ;incstack = 0
  2620                           ; Regs used in _Secuencia2: [wreg]
  2621                           
  2622                           
  2623                           ;Secuencias.c: 46:     LATCbits.LATC0 = 1;
  2624     05E0  0022               	movlb	2	; select bank2
  2625     05E1  140E               	bsf	14,0	;volatile
  2626                           
  2627                           ;Secuencias.c: 47:     LATCbits.LATC1 = 0;
  2628     05E2  108E               	bcf	14,1	;volatile
  2629                           
  2630                           ;Secuencias.c: 48:     LATCbits.LATC2 = 1;
  2631     05E3  150E               	bsf	14,2	;volatile
  2632                           
  2633                           ;Secuencias.c: 49:     LATCbits.LATC3 = 0;
  2634     05E4  118E               	bcf	14,3	;volatile
  2635                           
  2636                           ;Secuencias.c: 50:     LATCbits.LATC4 = 1;
  2637     05E5  160E               	bsf	14,4	;volatile
  2638                           
  2639                           ;Secuencias.c: 51:     LATCbits.LATC5 = 0;
  2640     05E6  128E               	bcf	14,5	;volatile
  2641                           
  2642                           ;Secuencias.c: 52:     LATCbits.LATC6 = 1;
  2643     05E7  170E               	bsf	14,6	;volatile
  2644                           
  2645                           ;Secuencias.c: 53:     LATCbits.LATC7 = 0;
  2646     05E8  138E               	bcf	14,7	;volatile
  2647     05E9                     l738:
  2648                           
  2649                           ;Secuencias.c: 54:     _delay((unsigned long)((T)*(20000000UL/4000.0)));
  2650     05E9  3041               	movlw	65
  2651     05EA  00F0               	movwf	??_Secuencia2
  2652     05EB  30EE               	movlw	238
  2653     05EC                     u1347:
  2654     05EC  0B89               	decfsz	9,f
  2655     05ED  2DEC               	goto	u1347
  2656     05EE  0BF0               	decfsz	??_Secuencia2,f
  2657     05EF  2DEC               	goto	u1347
  2658     05F0  3200               	nop2
  2659     05F1                     l740:
  2660                           
  2661                           ;Secuencias.c: 55:     LATCbits.LATC0 = 0;
  2662     05F1  0022               	movlb	2	; select bank2
  2663     05F2  100E               	bcf	14,0	;volatile
  2664     05F3                     l742:
  2665                           
  2666                           ;Secuencias.c: 56:     LATCbits.LATC1 = 0;
  2667     05F3  108E               	bcf	14,1	;volatile
  2668     05F4                     l744:
  2669                           
  2670                           ;Secuencias.c: 57:     LATCbits.LATC2 = 0;
  2671     05F4  110E               	bcf	14,2	;volatile
  2672     05F5                     l746:
  2673                           
  2674                           ;Secuencias.c: 58:     LATCbits.LATC3 = 0;
  2675     05F5  118E               	bcf	14,3	;volatile
  2676     05F6                     l748:
  2677                           
  2678                           ;Secuencias.c: 59:     LATCbits.LATC4 = 0;
  2679     05F6  120E               	bcf	14,4	;volatile
  2680     05F7                     l750:
  2681                           
  2682                           ;Secuencias.c: 60:     LATCbits.LATC5 = 0;
  2683     05F7  128E               	bcf	14,5	;volatile
  2684     05F8                     l752:
  2685                           
  2686                           ;Secuencias.c: 61:     LATCbits.LATC6 = 0;
  2687     05F8  130E               	bcf	14,6	;volatile
  2688     05F9                     l754:
  2689                           
  2690                           ;Secuencias.c: 62:     LATCbits.LATC7 = 0;
  2691     05F9  138E               	bcf	14,7	;volatile
  2692                           
  2693                           ;Secuencias.c: 63:     _delay((unsigned long)((T)*(20000000UL/4000.0)));
  2694     05FA  3041               	movlw	65
  2695     05FB  00F0               	movwf	??_Secuencia2
  2696     05FC  30EE               	movlw	238
  2697     05FD                     u1357:
  2698     05FD  0B89               	decfsz	9,f
  2699     05FE  2DFD               	goto	u1357
  2700     05FF  0BF0               	decfsz	??_Secuencia2,f
  2701     0600  2DFD               	goto	u1357
  2702     0601  3200               	nop2
  2703     0602                     l49:
  2704     0602  0008               	return
  2705     0603                     __end_of_Secuencia2:
  2706                           
  2707                           	psect	text10
  2708     05BD                     __ptext10:	
  2709 ;; *************** function _Secuencia1 *****************
  2710 ;; Defined at:
  2711 ;;		line 25 in file "Secuencias.c"
  2712 ;; Parameters:    Size  Location     Type
  2713 ;;		None
  2714 ;; Auto vars:     Size  Location     Type
  2715 ;;		None
  2716 ;; Return value:  Size  Location     Type
  2717 ;;                  1    wreg      void 
  2718 ;; Registers used:
  2719 ;;		wreg
  2720 ;; Tracked objects:
  2721 ;;		On entry : 0/0
  2722 ;;		On exit  : 0/0
  2723 ;;		Unchanged: 0/0
  2724 ;; Data sizes:     COMMON   BANK0   BANK1   BANK2   BANK3   BANK4   BANK5   BANK6   BANK7   BANK8   BANK9  BANK10  BANK1
      +1  BANK12
  2725 ;;      Params:         0       0       0       0       0       0       0       0       0       0       0       0       
      +0       0
  2726 ;;      Locals:         0       0       0       0       0       0       0       0       0       0       0       0       
      +0       0
  2727 ;;      Temps:          1       0       0       0       0       0       0       0       0       0       0       0       
      +0       0
  2728 ;;      Totals:         1       0       0       0       0       0       0       0       0       0       0       0       
      +0       0
  2729 ;;Total ram usage:        1 bytes
  2730 ;; Hardware stack levels used: 1
  2731 ;; This function calls:
  2732 ;;		Nothing
  2733 ;; This function is called by:
  2734 ;;		_Secuenciass
  2735 ;; This function uses a non-reentrant model
  2736 ;;
  2737                           
  2738     05BD                     _Secuencia1:	
  2739                           ;psect for function _Secuencia1
  2740                           
  2741     05BD                     l716:	
  2742                           ;incstack = 0
  2743                           ; Regs used in _Secuencia1: [wreg]
  2744                           
  2745                           
  2746                           ;Secuencias.c: 26:     LATCbits.LATC0 = 0;
  2747     05BD  0022               	movlb	2	; select bank2
  2748     05BE  100E               	bcf	14,0	;volatile
  2749                           
  2750                           ;Secuencias.c: 27:     LATCbits.LATC1 = 1;
  2751     05BF  148E               	bsf	14,1	;volatile
  2752                           
  2753                           ;Secuencias.c: 28:     LATCbits.LATC2 = 0;
  2754     05C0  110E               	bcf	14,2	;volatile
  2755                           
  2756                           ;Secuencias.c: 29:     LATCbits.LATC3 = 1;
  2757     05C1  158E               	bsf	14,3	;volatile
  2758                           
  2759                           ;Secuencias.c: 30:     LATCbits.LATC4 = 0;
  2760     05C2  120E               	bcf	14,4	;volatile
  2761                           
  2762                           ;Secuencias.c: 31:     LATCbits.LATC5 = 1;
  2763     05C3  168E               	bsf	14,5	;volatile
  2764                           
  2765                           ;Secuencias.c: 32:     LATCbits.LATC6 = 0;
  2766     05C4  130E               	bcf	14,6	;volatile
  2767                           
  2768                           ;Secuencias.c: 33:     LATCbits.LATC7 = 1;
  2769     05C5  178E               	bsf	14,7	;volatile
  2770     05C6                     l718:
  2771                           
  2772                           ;Secuencias.c: 34:     _delay((unsigned long)((10)*(20000000UL/4000.0)));
  2773     05C6  3041               	movlw	65
  2774     05C7  00F0               	movwf	??_Secuencia1
  2775     05C8  30EE               	movlw	238
  2776     05C9                     u1367:
  2777     05C9  0B89               	decfsz	9,f
  2778     05CA  2DC9               	goto	u1367
  2779     05CB  0BF0               	decfsz	??_Secuencia1,f
  2780     05CC  2DC9               	goto	u1367
  2781     05CD  3200               	nop2
  2782     05CE                     l720:
  2783                           
  2784                           ;Secuencias.c: 35:     LATCbits.LATC0 = 0;
  2785     05CE  0022               	movlb	2	; select bank2
  2786     05CF  100E               	bcf	14,0	;volatile
  2787     05D0                     l722:
  2788                           
  2789                           ;Secuencias.c: 36:     LATCbits.LATC1 = 0;
  2790     05D0  108E               	bcf	14,1	;volatile
  2791     05D1                     l724:
  2792                           
  2793                           ;Secuencias.c: 37:     LATCbits.LATC2 = 0;
  2794     05D1  110E               	bcf	14,2	;volatile
  2795     05D2                     l726:
  2796                           
  2797                           ;Secuencias.c: 38:     LATCbits.LATC3 = 0;
  2798     05D2  118E               	bcf	14,3	;volatile
  2799     05D3                     l728:
  2800                           
  2801                           ;Secuencias.c: 39:     LATCbits.LATC4 = 0;
  2802     05D3  120E               	bcf	14,4	;volatile
  2803     05D4                     l730:
  2804                           
  2805                           ;Secuencias.c: 40:     LATCbits.LATC5 = 0;
  2806     05D4  128E               	bcf	14,5	;volatile
  2807     05D5                     l732:
  2808                           
  2809                           ;Secuencias.c: 41:     LATCbits.LATC6 = 0;
  2810     05D5  130E               	bcf	14,6	;volatile
  2811     05D6                     l734:
  2812                           
  2813                           ;Secuencias.c: 42:     LATCbits.LATC7 = 0;
  2814     05D6  138E               	bcf	14,7	;volatile
  2815                           
  2816                           ;Secuencias.c: 43:     _delay((unsigned long)((10)*(20000000UL/4000.0)));
  2817     05D7  3041               	movlw	65
  2818     05D8  00F0               	movwf	??_Secuencia1
  2819     05D9  30EE               	movlw	238
  2820     05DA                     u1377:
  2821     05DA  0B89               	decfsz	9,f
  2822     05DB  2DDA               	goto	u1377
  2823     05DC  0BF0               	decfsz	??_Secuencia1,f
  2824     05DD  2DDA               	goto	u1377
  2825     05DE  3200               	nop2
  2826     05DF                     l46:
  2827     05DF  0008               	return
  2828     05E0                     __end_of_Secuencia1:
  2829                           
  2830                           	psect	text11
  2831     059A                     __ptext11:	
  2832 ;; *************** function _Secuencia0 *****************
  2833 ;; Defined at:
  2834 ;;		line 5 in file "Secuencias.c"
  2835 ;; Parameters:    Size  Location     Type
  2836 ;;		None
  2837 ;; Auto vars:     Size  Location     Type
  2838 ;;		None
  2839 ;; Return value:  Size  Location     Type
  2840 ;;                  1    wreg      void 
  2841 ;; Registers used:
  2842 ;;		wreg
  2843 ;; Tracked objects:
  2844 ;;		On entry : 0/0
  2845 ;;		On exit  : 0/0
  2846 ;;		Unchanged: 0/0
  2847 ;; Data sizes:     COMMON   BANK0   BANK1   BANK2   BANK3   BANK4   BANK5   BANK6   BANK7   BANK8   BANK9  BANK10  BANK1
      +1  BANK12
  2848 ;;      Params:         0       0       0       0       0       0       0       0       0       0       0       0       
      +0       0
  2849 ;;      Locals:         0       0       0       0       0       0       0       0       0       0       0       0       
      +0       0
  2850 ;;      Temps:          1       0       0       0       0       0       0       0       0       0       0       0       
      +0       0
  2851 ;;      Totals:         1       0       0       0       0       0       0       0       0       0       0       0       
      +0       0
  2852 ;;Total ram usage:        1 bytes
  2853 ;; Hardware stack levels used: 1
  2854 ;; This function calls:
  2855 ;;		Nothing
  2856 ;; This function is called by:
  2857 ;;		_Secuenciass
  2858 ;; This function uses a non-reentrant model
  2859 ;;
  2860                           
  2861     059A                     _Secuencia0:	
  2862                           ;psect for function _Secuencia0
  2863                           
  2864     059A                     l696:	
  2865                           ;incstack = 0
  2866                           ; Regs used in _Secuencia0: [wreg]
  2867                           
  2868                           
  2869                           ;Secuencias.c: 6:     LATCbits.LATC0 = 0;
  2870     059A  0022               	movlb	2	; select bank2
  2871     059B  100E               	bcf	14,0	;volatile
  2872                           
  2873                           ;Secuencias.c: 7:     LATCbits.LATC1 = 0;
  2874     059C  108E               	bcf	14,1	;volatile
  2875                           
  2876                           ;Secuencias.c: 8:     LATCbits.LATC2 = 0;
  2877     059D  110E               	bcf	14,2	;volatile
  2878                           
  2879                           ;Secuencias.c: 9:     LATCbits.LATC3 = 0;
  2880     059E  118E               	bcf	14,3	;volatile
  2881                           
  2882                           ;Secuencias.c: 10:     LATCbits.LATC4 = 0;
  2883     059F  120E               	bcf	14,4	;volatile
  2884                           
  2885                           ;Secuencias.c: 11:     LATCbits.LATC5 = 0;
  2886     05A0  128E               	bcf	14,5	;volatile
  2887                           
  2888                           ;Secuencias.c: 12:     LATCbits.LATC6 = 0;
  2889     05A1  130E               	bcf	14,6	;volatile
  2890                           
  2891                           ;Secuencias.c: 13:     LATCbits.LATC7 = 0;
  2892     05A2  138E               	bcf	14,7	;volatile
  2893     05A3                     l698:
  2894                           
  2895                           ;Secuencias.c: 14:     _delay((unsigned long)((10)*(20000000UL/4000.0)));
  2896     05A3  3041               	movlw	65
  2897     05A4  00F0               	movwf	??_Secuencia0
  2898     05A5  30EE               	movlw	238
  2899     05A6                     u1387:
  2900     05A6  0B89               	decfsz	9,f
  2901     05A7  2DA6               	goto	u1387
  2902     05A8  0BF0               	decfsz	??_Secuencia0,f
  2903     05A9  2DA6               	goto	u1387
  2904     05AA  3200               	nop2
  2905     05AB                     l700:
  2906                           
  2907                           ;Secuencias.c: 15:     LATCbits.LATC0 = 1;
  2908     05AB  0022               	movlb	2	; select bank2
  2909     05AC  140E               	bsf	14,0	;volatile
  2910     05AD                     l702:
  2911                           
  2912                           ;Secuencias.c: 16:     LATCbits.LATC1 = 1;
  2913     05AD  148E               	bsf	14,1	;volatile
  2914     05AE                     l704:
  2915                           
  2916                           ;Secuencias.c: 17:     LATCbits.LATC2 = 1;
  2917     05AE  150E               	bsf	14,2	;volatile
  2918     05AF                     l706:
  2919                           
  2920                           ;Secuencias.c: 18:     LATCbits.LATC3 = 1;
  2921     05AF  158E               	bsf	14,3	;volatile
  2922     05B0                     l708:
  2923                           
  2924                           ;Secuencias.c: 19:     LATCbits.LATC4 = 1;
  2925     05B0  160E               	bsf	14,4	;volatile
  2926     05B1                     l710:
  2927                           
  2928                           ;Secuencias.c: 20:     LATCbits.LATC5 = 1;
  2929     05B1  168E               	bsf	14,5	;volatile
  2930     05B2                     l712:
  2931                           
  2932                           ;Secuencias.c: 21:     LATCbits.LATC6 = 1;
  2933     05B2  170E               	bsf	14,6	;volatile
  2934     05B3                     l714:
  2935                           
  2936                           ;Secuencias.c: 22:     LATCbits.LATC7 = 1;
  2937     05B3  178E               	bsf	14,7	;volatile
  2938                           
  2939                           ;Secuencias.c: 23:     _delay((unsigned long)((10)*(20000000UL/4000.0)));
  2940     05B4  3041               	movlw	65
  2941     05B5  00F0               	movwf	??_Secuencia0
  2942     05B6  30EE               	movlw	238
  2943     05B7                     u1397:
  2944     05B7  0B89               	decfsz	9,f
  2945     05B8  2DB7               	goto	u1397
  2946     05B9  0BF0               	decfsz	??_Secuencia0,f
  2947     05BA  2DB7               	goto	u1397
  2948     05BB  3200               	nop2
  2949     05BC                     l43:
  2950     05BC  0008               	return
  2951     05BD                     __end_of_Secuencia0:
  2952     007E                     btemp	set	126	;btemp
  2953     007E                     wtemp0	set	126
  2954                           
  2955                           	psect	config
  2956                           
  2957                           ;Config register CONFIG1 @ 0x8007
  2958                           ;	Oscillator Selection
  2959                           ;	FOSC = HS, HS Oscillator, High-speed crystal/resonator connected between OSC1 and OSC2
      +                           pins
  2960                           ;	Watchdog Timer Enable
  2961                           ;	WDTE = OFF, WDT disabled
  2962                           ;	Power-up Timer Enable
  2963                           ;	PWRTE = OFF, PWRT disabled
  2964                           ;	MCLR Pin Function Select
  2965                           ;	MCLRE = ON, MCLR/VPP pin function is MCLR
  2966                           ;	Flash Program Memory Code Protection
  2967                           ;	CP = OFF, Program memory code protection is disabled
  2968                           ;	Data Memory Code Protection
  2969                           ;	CPD = OFF, Data memory code protection is disabled
  2970                           ;	Brown-out Reset Enable
  2971                           ;	BOREN = ON, Brown-out Reset enabled
  2972                           ;	Clock Out Enable
  2973                           ;	CLKOUTEN = OFF, CLKOUT function is disabled. I/O or oscillator function on the CLKOUT 
      +                          pin
  2974                           ;	Internal/External Switchover
  2975                           ;	IESO = ON, Internal/External Switchover mode is enabled
  2976                           ;	Fail-Safe Clock Monitor Enable
  2977                           ;	FCMEN = ON, Fail-Safe Clock Monitor is enabled
  2978     8007                     	org	32775
  2979     8007  3FE2               	dw	16354
  2980                           
  2981                           ;Config register CONFIG2 @ 0x8008
  2982                           ;	Flash Memory Self-Write Protection
  2983                           ;	WRT = OFF, Write protection off
  2984                           ;	Voltage Regulator Capacitor Enable
  2985                           ;	VCAPEN = OFF, All VCAP pin functionality is disabled
  2986                           ;	PLL Enable
  2987                           ;	PLLEN = OFF, 4x PLL disabled
  2988                           ;	Stack Overflow/Underflow Reset Enable
  2989                           ;	STVREN = ON, Stack Overflow or Underflow will cause a Reset
  2990                           ;	Brown-out Reset Voltage Selection
  2991                           ;	BORV = LO, Brown-out Reset Voltage (Vbor), low trip point selected.
  2992                           ;	Low-Voltage Programming Enable
  2993                           ;	LVP = ON, Low-voltage programming enabled
  2994     8008                     	org	32776
  2995     8008  3EFF               	dw	16127

Data Sizes:
    Strings     0
    Constant    0
    Data        2
    BSS         0
    Persistent  32
    Stack       0

Auto Spaces:
    Space          Size  Autos    Used
    COMMON           14      5       7
    BANK0            80      0       0
    BANK1            80      0       0
    BANK2            80      0       0
    BANK3            80      0       0
    BANK4            80      0       0
    BANK5            80      0       0
    BANK6            80      0       0
    BANK7            80      0       0
    BANK8            80      0       0
    BANK9            80      0       0
    BANK10           80      0       0
    BANK11           80      0       0
    BANK12           48      0       0

Pointer List with Targets:

    None.

Critical Paths under _main in COMMON

    _main->_Secuenciass
    _Secuenciass->_Secuencia0
    _Secuenciass->_Secuencia1
    _Secuenciass->_Secuencia2

Critical Paths under _main in BANK0

    None.

Critical Paths under _main in BANK1

    None.

Critical Paths under _main in BANK2

    None.

Critical Paths under _main in BANK3

    None.

Critical Paths under _main in BANK4

    None.

Critical Paths under _main in BANK5

    None.

Critical Paths under _main in BANK6

    None.

Critical Paths under _main in BANK7

    None.

Critical Paths under _main in BANK8

    None.

Critical Paths under _main in BANK9

    None.

Critical Paths under _main in BANK10

    None.

Critical Paths under _main in BANK11

    None.

Critical Paths under _main in BANK12

    None.

Call Graph Tables:

 ---------------------------------------------------------------------------------
 (Depth) Function   	        Calls       Base Space   Used Autos Params    Refs
 ---------------------------------------------------------------------------------
 (0) _main                                                 2     2      0     131
                                              3 COMMON     2     2      0
                        _Secuenciass
 ---------------------------------------------------------------------------------
 (1) _Secuenciass                                          2     0      2      98
                                              1 COMMON     2     0      2
                         _Secuencia0
                         _Secuencia1
                         _Secuencia2
                         _Secuencia3
                         _Secuencia4
                         _Secuencia5
                         _Secuencia6
                         _Secuencia7
                         _Secuencia8
                         _Secuencia9
 ---------------------------------------------------------------------------------
 (2) _Secuencia9                                           0     0      0       0
 ---------------------------------------------------------------------------------
 (2) _Secuencia8                                           0     0      0       0
 ---------------------------------------------------------------------------------
 (2) _Secuencia7                                           0     0      0       0
 ---------------------------------------------------------------------------------
 (2) _Secuencia6                                           0     0      0       0
 ---------------------------------------------------------------------------------
 (2) _Secuencia5                                           0     0      0       0
 ---------------------------------------------------------------------------------
 (2) _Secuencia4                                           0     0      0       0
 ---------------------------------------------------------------------------------
 (2) _Secuencia3                                           0     0      0       0
 ---------------------------------------------------------------------------------
 (2) _Secuencia2                                           1     1      0       0
                                              0 COMMON     1     1      0
 ---------------------------------------------------------------------------------
 (2) _Secuencia1                                           1     1      0       0
                                              0 COMMON     1     1      0
 ---------------------------------------------------------------------------------
 (2) _Secuencia0                                           1     1      0       0
                                              0 COMMON     1     1      0
 ---------------------------------------------------------------------------------
 Estimated maximum stack depth 2
 ---------------------------------------------------------------------------------

 Call Graph Graphs:

 _main (ROOT)
   _Secuenciass
     _Secuencia0
     _Secuencia1
     _Secuencia2
     _Secuencia3
     _Secuencia4
     _Secuencia5
     _Secuencia6
     _Secuencia7
     _Secuencia8
     _Secuencia9

 Address spaces:
Name               Size   Autos  Total    Cost      Usage
BIGRAM             3F0      0       0       0        0.0%
EEDATA             100      0       0       0        0.0%
NULL                 0      0       0       0        0.0%
CODE                 0      0       0       0        0.0%
BITCOMMON            E      0       0       1        0.0%
BITSFR0              0      0       0       1        0.0%
SFR0                 0      0       0       1        0.0%
COMMON               E      5       7       2       50.0%
BITSFR1              0      0       0       2        0.0%
SFR1                 0      0       0       2        0.0%
BITSFR2              0      0       0       3        0.0%
SFR2                 0      0       0       3        0.0%
STACK                0      0       0       3        0.0%
BITBANK0            50      0       0       4        0.0%
BITSFR3              0      0       0       4        0.0%
SFR3                 0      0       0       4        0.0%
BANK0               50      0       0       5        0.0%
BITSFR4              0      0       0       5        0.0%
SFR4                 0      0       0       5        0.0%
BITBANK1            50      0       0       6        0.0%
BITSFR5              0      0       0       6        0.0%
SFR5                 0      0       0       6        0.0%
BANK1               50      0       0       7        0.0%
BITSFR6              0      0       0       7        0.0%
SFR6                 0      0       0       7        0.0%
BITBANK2            50      0       0       8        0.0%
BITSFR7              0      0       0       8        0.0%
SFR7                 0      0       0       8        0.0%
BANK2               50      0       0       9        0.0%
BITSFR8              0      0       0       9        0.0%
SFR8                 0      0       0       9        0.0%
BITBANK3            50      0       0      10        0.0%
BITSFR9              0      0       0      10        0.0%
SFR9                 0      0       0      10        0.0%
BANK3               50      0       0      11        0.0%
BITSFR10             0      0       0      11        0.0%
SFR10                0      0       0      11        0.0%
BITBANK4            50      0       0      12        0.0%
BITSFR11             0      0       0      12        0.0%
SFR11                0      0       0      12        0.0%
BANK4               50      0       0      13        0.0%
BITSFR12             0      0       0      13        0.0%
SFR12                0      0       0      13        0.0%
BITBANK5            50      0       0      14        0.0%
BITSFR13             0      0       0      14        0.0%
SFR13                0      0       0      14        0.0%
BANK5               50      0       0      15        0.0%
BITSFR14             0      0       0      15        0.0%
SFR14                0      0       0      15        0.0%
BITBANK6            50      0       0      16        0.0%
BITSFR15             0      0       0      16        0.0%
SFR15                0      0       0      16        0.0%
BANK6               50      0       0      17        0.0%
BITSFR16             0      0       0      17        0.0%
SFR16                0      0       0      17        0.0%
BITBANK7            50      0       0      18        0.0%
BITSFR17             0      0       0      18        0.0%
SFR17                0      0       0      18        0.0%
BANK7               50      0       0      19        0.0%
BITSFR18             0      0       0      19        0.0%
SFR18                0      0       0      19        0.0%
BITSFR19             0      0       0      20        0.0%
SFR19                0      0       0      20        0.0%
ABS                  0      0       7      20        0.0%
BITBANK8            50      0       0      21        0.0%
BITSFR20             0      0       0      21        0.0%
SFR20                0      0       0      21        0.0%
BANK8               50      0       0      22        0.0%
BITSFR21             0      0       0      22        0.0%
SFR21                0      0       0      22        0.0%
BITBANK9            50      0       0      23        0.0%
BITSFR22             0      0       0      23        0.0%
SFR22                0      0       0      23        0.0%
BANK9               50      0       0      24        0.0%
BITSFR23             0      0       0      24        0.0%
SFR23                0      0       0      24        0.0%
BITBANK10           50      0       0      25        0.0%
BITSFR24             0      0       0      25        0.0%
SFR24                0      0       0      25        0.0%
BANK10              50      0       0      26        0.0%
BITSFR25             0      0       0      26        0.0%
SFR25                0      0       0      26        0.0%
BITBANK11           50      0       0      27        0.0%
BITSFR26             0      0       0      27        0.0%
SFR26                0      0       0      27        0.0%
BANK11              50      0       0      28        0.0%
BITSFR27             0      0       0      28        0.0%
SFR27                0      0       0      28        0.0%
BITBANK12           30      0       0      29        0.0%
BITSFR28             0      0       0      29        0.0%
SFR28                0      0       0      29        0.0%
BANK12              30      0       0      30        0.0%
BITSFR29             0      0       0      30        0.0%
SFR29                0      0       0      30        0.0%
BITSFR30             0      0       0      31        0.0%
SFR30                0      0       0      31        0.0%
DATA                 0      0       7      31        0.0%
BITSFR31             0      0       0      32        0.0%
SFR31                0      0       0      32        0.0%


Microchip Technology PIC Macro Assembler V2.41 build 20230208172133 
Symbol Table                                                                                   Wed Aug 23 14:35:45 2023

                      _T 0076                       l43 05BC                       l52 0563  
                     l61 0599                       l46 05DF                       l70 0643  
                     l55 0575                       l64 0685                       l49 0602  
                     l58 0587                       l67 06C7                       _T2 0075  
                     l88 0716                      l700 05AB                      l710 05B1  
                    l702 05AD                      l712 05B2                      l704 05AE  
                    l720 05CE                      l714 05B3                      l706 05AF  
                    l730 05D4                      l722 05D0                      l708 05B0  
                    l732 05D5                      l724 05D1                      l716 05BD  
                    l740 05F1                      l734 05D6                      l726 05D2  
                    l718 05C6                      l750 05F7                      l742 05F3  
                    l728 05D3                      l752 05F8                      l744 05F4  
                    l736 05E0                      l760 0576                      l754 05F9  
                    l746 05F5                      l738 05E9                      l762 0588  
                    l748 05F6                      l756 0552                      l764 0644  
                    l758 0564                      l766 0686                      l696 059A  
                    l768 0603                      l698 05A3                      u940 0729  
                    u941 0728                      u950 072D                      u951 072C  
                    u960 0731                      u961 0730                      u970 0735  
                    u971 0734                      u980 073B                      u981 073A  
                    u990 073F                      u991 073E                      wreg 0009  
                   l1300 071A                     l1310 0724                     l1302 071C  
                   l1400 07D7                     l1312 0729                     l1320 0737  
                   l1304 071E                     l1402 07DB                     l1410 07EB  
                   l1322 073B                     l1330 074B                     l1314 072D  
                   l1306 0720                     l1404 07DF                     l1332 074F  
                   l1340 075F                     l1324 073F                     l1316 0731  
                   l1308 0722                     l1270 06C9                     l1406 07E3  
                   l1342 0763                     l1350 0773                     l1334 0753  
                   l1326 0743                     l1318 0735                     l1432 06F6  
                   l1280 06DD                     l1272 06CD                     l1408 07E7  
                   l1352 0777                     l1360 0787                     l1344 0767  
                   l1336 0757                     l1328 0747                     l1282 06E1  
                   l1274 06D1                     l1362 078B                     l1370 079B  
                   l1354 077B                     l1346 076B                     l1338 075B  
                   l1284 06E5                     l1276 06D5                     l1292 06F1  
                   l1268 06C8                     l1372 079F                     l1380 07AF  
                   l1364 078F                     l1356 077F                     l1348 076F  
                   l1286 06E9                     l1278 06D9                     l1382 07B3  
                   l1390 07C3                     l1374 07A3                     l1366 0793  
                   l1358 0783                     l1288 06ED                     l1392 07C7  
                   l1384 07B7                     l1376 07A7                     l1368 0797  
                   l1394 07CB                     l1386 07BB                     l1378 07AB  
                   l1298 0717                     l1396 07CF                     l1388 07BF  
                   l1398 07D3                     u1000 0743                     u1001 0742  
                   u1010 0747                     u1011 0746                     u1100 0777  
                   u1020 074F                     u1101 0776                     u1021 074E  
                   u1110 077B                     u1030 0753                     u1111 077A  
                   u1031 0752                     u1200 07A7                     u1120 077F  
                   u1040 0757                     u1201 07A6                     u1121 077E  
                   u1041 0756                     u1210 07AB                     u1130 0783  
                   u1050 075B                     u1211 07AA                     u1131 0782  
                   u1051 075A                     u1300 07DB                     u1220 07B3  
                   u1140 078B                     u1060 0763                     u1301 07DA  
                   u1221 07B2                     u1141 078A                     u1061 0762  
                   u1310 07DF                     u1230 07B7                     u1150 078F  
                   u1070 0767                     u1311 07DE                     u1231 07B6  
                   u1151 078E                     u1071 0766                     u1320 07E3  
                   u1240 07BB                     u1160 0793                     u1080 076B  
                   u1321 07E2                     u1241 07BA                     u1161 0792  
                   u1081 076A                     u1330 07E7                     u1250 07BF  
                   u1170 0797                     u1090 076F                     u1331 07E6  
                   u1251 07BE                     u1171 0796                     u1091 076E  
                   u1260 07C7                     u1180 079F                     u1261 07C6  
                   u1181 079E                     u1270 07CB                     u1190 07A3  
                   u1271 07CA                     u1191 07A2                     u1280 07CF  
                   u1281 07CE                     u1290 07D3                     u1347 05EC  
                   u1291 07D2                     u1357 05FD                     u1367 05C9  
                   u1377 05DA                     u1387 05A6                     u1397 05B7  
                   _main 0717                     btemp 007E                     start 0002  
                  ?_main 0070                    _PORTB 000D                    _PORTC 000E  
                  _TRISB 008D                    _TRISC 008E                    main@P 0073  
                  wtemp0 007E          __initialization 07F5             __end_of_main 07F5  
                 ??_main 0073            Secuenciass@P1 0071            ??_Secuenciass 0073  
                 _ANSELB 018D               _Secuencia0 059A               _Secuencia1 05BD  
             _Secuencia2 05E0               _Secuencia3 0552               _Secuencia4 0564  
             _Secuencia5 0576               _Secuencia6 0588               _Secuencia7 0644  
             _Secuencia8 0686               _Secuencia9 0603             __pdataCOMMON 0075  
    __end_of_Secuenciass 0717  __end_of__initialization 07FD           __pcstackCOMMON 0070  
            ?_Secuencia0 0070              ?_Secuencia1 0070              ?_Secuencia2 0070  
            ?_Secuencia3 0070              ?_Secuencia4 0070              ?_Secuencia5 0070  
            ?_Secuencia6 0070              ?_Secuencia7 0070              ?_Secuencia8 0070  
            ?_Secuencia9 0070               __pmaintext 0717              _Secuenciass 06C8  
                __ptext1 06C8                  __ptext2 0603                  __ptext3 0686  
                __ptext4 0644                  __ptext5 0588                  __ptext6 0576  
                __ptext7 0564                  __ptext8 0552                  __ptext9 05E0  
   end_of_initialization 07FD                _PORTBbits 000D            __pidataCOMMON 0550  
    start_initialization 07F5             ??_Secuencia0 0070             ??_Secuencia1 0070  
           ??_Secuencia2 0070             ??_Secuencia3 0070             ??_Secuencia4 0070  
           ??_Secuencia5 0070             ??_Secuencia6 0070             ??_Secuencia7 0070  
           ??_Secuencia8 0070             ??_Secuencia9 0070       __end_of_Secuencia0 05BD  
     __end_of_Secuencia1 05E0       __end_of_Secuencia2 0603       __end_of_Secuencia3 0564  
     __end_of_Secuencia4 0576       __end_of_Secuencia5 0588       __end_of_Secuencia6 059A  
     __end_of_Secuencia7 0686       __end_of_Secuencia8 06C8       __end_of_Secuencia9 0644  
           ?_Secuenciass 0071                ___latbits 0003                 _LATCbits 010E  
               __ptext10 05BD                 __ptext11 059A  
